Component: ARM Compiler 5.06 update 6 (build 750) Tool: armlink [4d35ed]

==============================================================================

Section Cross References

    main.o(i.CH57xNET_HandleGlobalInt) refers to ch57xsock.o(i.CH57xNET_GetGlobalInt) for CH57xNET_GetGlobalInt
    main.o(i.CH57xNET_HandleGlobalInt) refers to ch57xsock.o(i.CH57xNET_GetPHYStatus) for CH57xNET_GetPHYStatus
    main.o(i.CH57xNET_HandleGlobalInt) refers to ch57xsock.o(i.CH57xNET_GetSocketInt) for CH57xNET_GetSocketInt
    main.o(i.CH57xNET_HandleGlobalInt) refers to net_tcp_server.o(i.net_tcp_server_data) for net_tcp_server_data
    main.o(i.CH57xNET_HandleGlobalInt) refers to main.o(.bss) for net_tcp_server
    main.o(i.main) refers to ch57x_pwr.o(i.PWR_UnitModCfg) for PWR_UnitModCfg
    main.o(i.main) refers to ch57x_sys.o(i.mDelaymS) for mDelaymS
    main.o(i.main) refers to ch57x_clk.o(i.SetSysClock) for SetSysClock
    main.o(i.main) refers to uart.o(i.uart_init) for uart_init
    main.o(i.main) refers to net_init.o(i.net_init) for net_init
    main.o(i.main) refers to time.o(i.time0_init) for time0_init
    main.o(i.main) refers to data_forward.o(i.DataForward_Init) for DataForward_Init
    main.o(i.main) refers to net_tcp_server.o(i.net_tcp_server_close) for net_tcp_server_close
    main.o(i.main) refers to net_tcp_server.o(i.net_tcp_server_creat_socket) for net_tcp_server_creat_socket
    main.o(i.main) refers to ch57xsock.o(i.CH57xNET_MainTask) for CH57xNET_MainTask
    main.o(i.main) refers to ch57xsock.o(i.CH57xNET_QueryGlobalInt) for CH57xNET_QueryGlobalInt
    main.o(i.main) refers to main.o(i.CH57xNET_HandleGlobalInt) for CH57xNET_HandleGlobalInt
    main.o(i.main) refers to data_forward.o(i.DataForward_Process) for DataForward_Process
    main.o(i.main) refers to main.o(.bss) for net_tcp_server
    main.o(i.main) refers to main.o(i.tcp_server_recv_back) for tcp_server_recv_back
    main.o(i.main) refers to main.o(i.tcp_server_disconnected_back) for tcp_server_disconnected_back
    main.o(i.main) refers to main.o(i.tcp_server_connected_back) for tcp_server_connected_back
    main.o(i.tcp_server_connected_back) refers to main.o(.data) for socket1
    main.o(i.tcp_server_disconnected_back) refers to main.o(.data) for socket1
    main.o(i.tcp_server_recv_back) refers to data_forward.o(i.DataForward_RecvFromEth) for DataForward_RecvFromEth
    uart.o(i.UART0_IRQHandler) refers to data_forward.o(i.DataForward_ResetRecvState) for DataForward_ResetRecvState
    uart.o(i.UART0_IRQHandler) refers to data_forward.o(i.DataForward_RecvByte) for DataForward_RecvByte
    uart.o(i.UART0_IRQHandler) refers to data_forward.o(i.DataForward_FrameComplete) for DataForward_FrameComplete
    uart.o(i.UART0_IRQHandler) refers to ch57x_uart0.o(i.UART0_INTCfg) for UART0_INTCfg
    uart.o(i.UART1_IRQHandler) refers to data_forward.o(i.DataForward_ResetRecvState) for DataForward_ResetRecvState
    uart.o(i.UART1_IRQHandler) refers to data_forward.o(i.DataForward_RecvByte) for DataForward_RecvByte
    uart.o(i.UART1_IRQHandler) refers to data_forward.o(i.DataForward_FrameComplete) for DataForward_FrameComplete
    uart.o(i.UART1_IRQHandler) refers to ch57x_uart1.o(i.UART1_INTCfg) for UART1_INTCfg
    uart.o(i.UART2_IRQHandler) refers to data_forward.o(i.DataForward_ResetRecvState) for DataForward_ResetRecvState
    uart.o(i.UART2_IRQHandler) refers to data_forward.o(i.DataForward_RecvByte) for DataForward_RecvByte
    uart.o(i.UART2_IRQHandler) refers to data_forward.o(i.DataForward_FrameComplete) for DataForward_FrameComplete
    uart.o(i.UART2_IRQHandler) refers to ch57x_uart2.o(i.UART2_INTCfg) for UART2_INTCfg
    uart.o(i.UART3_IRQHandler) refers to data_forward.o(i.DataForward_ResetRecvState) for DataForward_ResetRecvState
    uart.o(i.UART3_IRQHandler) refers to data_forward.o(i.DataForward_RecvByte) for DataForward_RecvByte
    uart.o(i.UART3_IRQHandler) refers to data_forward.o(i.DataForward_FrameComplete) for DataForward_FrameComplete
    uart.o(i.UART3_IRQHandler) refers to ch57x_uart3.o(i.UART3_INTCfg) for UART3_INTCfg
    uart.o(i.fputc) refers to ch57x_uart1.o(i.UART1_INTCfg) for UART1_INTCfg
    uart.o(i.uart_init) refers to ch57x_gpio.o(i.GPIOPinRemap) for GPIOPinRemap
    uart.o(i.uart_init) refers to ch57x_gpio.o(i.GPIOA_ModeCfg) for GPIOA_ModeCfg
    uart.o(i.uart_init) refers to ch57x_uart0.o(i.UART0_DefInit) for UART0_DefInit
    uart.o(i.uart_init) refers to ch57x_uart0.o(i.UART0_INTCfg) for UART0_INTCfg
    uart.o(i.uart_init) refers to uart.o(i.NVIC_SetPriority) for NVIC_SetPriority
    uart.o(i.uart_init) refers to uart.o(i.NVIC_EnableIRQ) for NVIC_EnableIRQ
    uart.o(i.uart_init) refers to ch57x_uart1.o(i.UART1_DefInit) for UART1_DefInit
    uart.o(i.uart_init) refers to ch57x_uart1.o(i.UART1_INTCfg) for UART1_INTCfg
    uart.o(i.uart_init) refers to ch57x_uart2.o(i.UART2_DefInit) for UART2_DefInit
    uart.o(i.uart_init) refers to ch57x_uart2.o(i.UART2_INTCfg) for UART2_INTCfg
    uart.o(i.uart_init) refers to ch57x_gpio.o(i.GPIOB_ModeCfg) for GPIOB_ModeCfg
    uart.o(i.uart_init) refers to ch57x_uart3.o(i.UART3_DefInit) for UART3_DefInit
    uart.o(i.uart_init) refers to ch57x_uart3.o(i.UART3_INTCfg) for UART3_INTCfg
    uart.o(i.uart_send_bytes) refers to ch57x_uart0.o(i.UART0_SendString) for UART0_SendString
    uart.o(i.uart_send_bytes) refers to ch57x_uart1.o(i.UART1_SendString) for UART1_SendString
    uart.o(i.uart_send_bytes) refers to ch57x_uart2.o(i.UART2_SendString) for UART2_SendString
    uart.o(i.uart_send_bytes) refers to ch57x_uart3.o(i.UART3_SendString) for UART3_SendString
    time.o(i.TMR0_IRQHandler) refers to ch57xsock.o(i.CH57xNET_TimeIsr) for CH57xNET_TimeIsr
    time.o(i.TMR0_IRQHandler) refers to net_dns.o(i.net_dns_loop) for net_dns_loop
    time.o(i.TMR0_IRQHandler) refers to main.o(.bss) for TcpMybuf
    time.o(i.TMR0_IRQHandler) refers to time.o(.data) for timer0_value
    time.o(i.time0_init) refers to ch57x_timer0.o(i.TMR0_TimerInit) for TMR0_TimerInit
    time.o(i.time0_init) refers to time.o(i.NVIC_SetPriority) for NVIC_SetPriority
    led.o(i.led_set) refers to ch57x_gpio.o(i.GPIOB_ModeCfg) for GPIOB_ModeCfg
    led.o(i.led_set) refers to led.o(.data) for flag
    sys_tick.o(i.SysTick_Handler) refers to sys_tick.o(.data) for SysTickTimer
    sys_tick.o(i.sys_tick_get_timer) refers to sys_tick.o(.data) for SysTickTimer
    data_forward.o(i.DataForward_CanSend) refers to data_forward.o(i.DataForward_GetTick) for DataForward_GetTick
    data_forward.o(i.DataForward_CanSend) refers to data_forward.o(.data) for g_lastSendTime
    data_forward.o(i.DataForward_DequeueFrame) refers to memcpya.o(.text) for __aeabi_memcpy4
    data_forward.o(i.DataForward_DequeueFrame) refers to idiv.o(.text) for __aeabi_idivmod
    data_forward.o(i.DataForward_DequeueFrame) refers to data_forward.o(.bss) for g_frameQueue
    data_forward.o(i.DataForward_EnqueueFrame) refers to memcpya.o(.text) for __aeabi_memcpy4
    data_forward.o(i.DataForward_EnqueueFrame) refers to data_forward.o(i.DataForward_GetTick) for DataForward_GetTick
    data_forward.o(i.DataForward_EnqueueFrame) refers to idiv.o(.text) for __aeabi_idivmod
    data_forward.o(i.DataForward_EnqueueFrame) refers to data_forward.o(.bss) for g_frameQueue
    data_forward.o(i.DataForward_FrameComplete) refers to data_forward.o(i.DataForward_UpdateActivePort) for DataForward_UpdateActivePort
    data_forward.o(i.DataForward_FrameComplete) refers to data_forward.o(i.DataForward_GetPeerGroupMask) for DataForward_GetPeerGroupMask
    data_forward.o(i.DataForward_FrameComplete) refers to data_forward.o(i.DataForward_EnqueueFrame) for DataForward_EnqueueFrame
    data_forward.o(i.DataForward_FrameComplete) refers to data_forward.o(.bss) for g_recvState
    data_forward.o(i.DataForward_GetPeerActivePort) refers to data_forward.o(i.DataForward_GetPortGroup) for DataForward_GetPortGroup
    data_forward.o(i.DataForward_GetPeerActivePort) refers to data_forward.o(.data) for g_groupB_ActivePort
    data_forward.o(i.DataForward_GetPeerGroupMask) refers to data_forward.o(i.DataForward_GetPortGroup) for DataForward_GetPortGroup
    data_forward.o(i.DataForward_GetPeerGroupMask) refers to data_forward.o(i.PortToMask) for PortToMask
    data_forward.o(i.DataForward_GetPeerGroupMask) refers to data_forward.o(.data) for g_groupB_ActivePort
    data_forward.o(i.DataForward_GetPortGroup) refers to tcp.o(i.__ARM_common_switch8) for __ARM_common_switch8
    data_forward.o(i.DataForward_GetTick) refers to time.o(.data) for timer0_value
    data_forward.o(i.DataForward_Init) refers to memseta.o(.text) for __aeabi_memclr4
    data_forward.o(i.DataForward_Init) refers to data_forward.o(.bss) for g_frameQueue
    data_forward.o(i.DataForward_Init) refers to data_forward.o(.data) for g_groupA_ActivePort
    data_forward.o(i.DataForward_Process) refers to data_forward.o(i.DataForward_CanSend) for DataForward_CanSend
    data_forward.o(i.DataForward_Process) refers to data_forward.o(i.DataForward_DequeueFrame) for DataForward_DequeueFrame
    data_forward.o(i.DataForward_Process) refers to data_forward.o(i.DataForward_SendFrame) for DataForward_SendFrame
    data_forward.o(i.DataForward_Process) refers to data_forward.o(i.DataForward_GetTick) for DataForward_GetTick
    data_forward.o(i.DataForward_Process) refers to data_forward.o(.bss) for g_frameQueue
    data_forward.o(i.DataForward_Process) refers to data_forward.o(.data) for g_lastSendTime
    data_forward.o(i.DataForward_RecvByte) refers to data_forward.o(.bss) for g_recvState
    data_forward.o(i.DataForward_RecvFromEth) refers to data_forward.o(i.DataForward_UpdateActivePort) for DataForward_UpdateActivePort
    data_forward.o(i.DataForward_RecvFromEth) refers to data_forward.o(i.DataForward_GetPeerGroupMask) for DataForward_GetPeerGroupMask
    data_forward.o(i.DataForward_RecvFromEth) refers to memcpya.o(.text) for __aeabi_memcpy
    data_forward.o(i.DataForward_RecvFromEth) refers to data_forward.o(i.DataForward_GetTick) for DataForward_GetTick
    data_forward.o(i.DataForward_RecvFromEth) refers to idiv.o(.text) for __aeabi_idivmod
    data_forward.o(i.DataForward_RecvFromEth) refers to data_forward.o(.bss) for g_frameQueue
    data_forward.o(i.DataForward_ResetRecvState) refers to data_forward.o(.bss) for g_recvState
    data_forward.o(i.DataForward_SendFrame) refers to data_forward.o(i.DataForward_SendFrameToPort) for DataForward_SendFrameToPort
    data_forward.o(i.DataForward_SendFrameToPort) refers to tcp.o(i.__ARM_common_switch8) for __ARM_common_switch8
    data_forward.o(i.DataForward_SendFrameToPort) refers to uart.o(i.uart_send_byte) for uart_send_byte
    data_forward.o(i.DataForward_SendFrameToPort) refers to net_tcp_server.o(i.net_tcp_server_send) for net_tcp_server_send
    data_forward.o(i.DataForward_SendFrameToPort) refers to main.o(.data) for socket1
    data_forward.o(i.DataForward_UpdateActivePort) refers to data_forward.o(i.DataForward_GetPortGroup) for DataForward_GetPortGroup
    data_forward.o(i.DataForward_UpdateActivePort) refers to data_forward.o(.data) for g_groupA_ActivePort
    data_forward.o(i.PortToMask) refers to tcp.o(i.__ARM_common_switch8) for __ARM_common_switch8
    ch57x_adc.o(i.ADC_GetCurrentTS) refers to idiv.o(.text) for __aeabi_idivmod
    ch57x_clk.o(i.Calibration_LSI) refers to uidiv.o(.text) for __aeabi_uidivmod
    ch57x_clk.o(i.Calibration_LSI) refers to idiv.o(.text) for __aeabi_idivmod
    ch57x_clk.o(i.GetSysClock) refers to idiv.o(.text) for __aeabi_idivmod
    ch57x_clk.o(i.RTC_GetTime) refers to idiv.o(.text) for __aeabi_idivmod
    ch57x_clk.o(i.RTC_GetTime) refers to uidiv.o(.text) for __aeabi_uidivmod
    ch57x_clk.o(i.RTC_InitTime) refers to idiv.o(.text) for __aeabi_idivmod
    ch57x_clk.o(i.RTC_TRIGFunCfg) refers to ch57x_clk.o(i.RTC_GetCycle32k) for RTC_GetCycle32k
    ch57x_clk.o(i.SetSysClock) refers to tcp.o(i.__ARM_common_switch8) for __ARM_common_switch8
    ch57x_clk.o(i.SystemInit) refers to ch57x_sys.o(i.mDelayuS) for mDelayuS
    ch57x_clk.o(i.SystemInit) refers to ch57x_pwr.o(i.PowerMonitor) for PowerMonitor
    ch57x_flash.o(i.FlashBlockErase) refers to ch57x_pwr.o(i.PowerMonitor) for PowerMonitor
    ch57x_flash.o(i.FlashBlockErase) refers to ch57x_flash.o(.data) for codeflash_access_flag1
    ch57x_flash.o(i.FlashWriteBuf) refers to ch57x_pwr.o(i.PowerMonitor) for PowerMonitor
    ch57x_flash.o(i.FlashWriteBuf) refers to ch57x_flash.o(.data) for codeflash_access_flag1
    ch57x_flash.o(i.FlashWriteDW) refers to ch57x_pwr.o(i.PowerMonitor) for PowerMonitor
    ch57x_flash.o(i.FlashWriteDW) refers to ch57x_flash.o(.data) for codeflash_access_flag1
    ch57x_gpio.o(i.GPIOA_ModeCfg) refers to tcp.o(i.__ARM_common_switch8) for __ARM_common_switch8
    ch57x_gpio.o(i.GPIOB_ModeCfg) refers to tcp.o(i.__ARM_common_switch8) for __ARM_common_switch8
    ch57x_int.o(i.LowPower_Halt_1) refers to ch57x_pwr.o(i.PowerMonitor) for PowerMonitor
    ch57x_pwm.o(i.PWMX_CycleCfg) refers to tcp.o(i.__ARM_common_switch8) for __ARM_common_switch8
    ch57x_pwr.o(i.PWR_DCDCCfg) refers to ch57x_sys.o(i.mDelayuS) for mDelayuS
    ch57x_pwr.o(i.PowerMonitor) refers to ch57x_sys.o(i.mDelayuS) for mDelayuS
    ch57x_sys.o(i.mDelaymS) refers to ch57x_sys.o(i.mDelayuS) for mDelayuS
    ch57x_uart0.o(i.UART0_BaudRateCfg) refers to ch57x_clk.o(i.GetSysClock) for GetSysClock
    ch57x_uart0.o(i.UART0_BaudRateCfg) refers to uidiv.o(.text) for __aeabi_uidivmod
    ch57x_uart0.o(i.UART0_DefInit) refers to ch57x_uart0.o(i.UART0_BaudRateCfg) for UART0_BaudRateCfg
    ch57x_uart1.o(i.UART1_BaudRateCfg) refers to ch57x_clk.o(i.GetSysClock) for GetSysClock
    ch57x_uart1.o(i.UART1_BaudRateCfg) refers to uidiv.o(.text) for __aeabi_uidivmod
    ch57x_uart1.o(i.UART1_DefInit) refers to ch57x_uart1.o(i.UART1_BaudRateCfg) for UART1_BaudRateCfg
    ch57x_uart2.o(i.UART2_BaudRateCfg) refers to ch57x_clk.o(i.GetSysClock) for GetSysClock
    ch57x_uart2.o(i.UART2_BaudRateCfg) refers to uidiv.o(.text) for __aeabi_uidivmod
    ch57x_uart2.o(i.UART2_DefInit) refers to ch57x_uart2.o(i.UART2_BaudRateCfg) for UART2_BaudRateCfg
    ch57x_uart3.o(i.UART3_BaudRateCfg) refers to ch57x_clk.o(i.GetSysClock) for GetSysClock
    ch57x_uart3.o(i.UART3_BaudRateCfg) refers to uidiv.o(.text) for __aeabi_uidivmod
    ch57x_uart3.o(i.UART3_DefInit) refers to ch57x_uart3.o(i.UART3_BaudRateCfg) for UART3_BaudRateCfg
    ch57x_usbdev.o(i.USB_DeviceInit) refers to ch57x_usbdev.o(.data) for pEP0_RAM_Addr
    ch57x_usbhostbase.o(i.AnalyzeRootHub) refers to ch57x_usbhostbase.o(i.DisableRootHubPort) for DisableRootHubPort
    ch57x_usbhostbase.o(i.AnalyzeRootHub) refers to CH579MAI.o(.data) for CH579DiskStatus
    ch57x_usbhostbase.o(i.CopySetupReqPkg) refers to ch57x_usbhostbase.o(.data) for pHOST_TX_RAM_Addr
    ch57x_usbhostbase.o(i.CtrlClearEndpStall) refers to ch57x_usbhostbase.o(i.CopySetupReqPkg) for CopySetupReqPkg
    ch57x_usbhostbase.o(i.CtrlClearEndpStall) refers to ch57x_usbhostbase.o(i.HostCtrlTransfer) for HostCtrlTransfer
    ch57x_usbhostbase.o(i.CtrlClearEndpStall) refers to ch57x_usbhostbase.o(.constdata) for SetupClrEndpStall
    ch57x_usbhostbase.o(i.CtrlClearEndpStall) refers to ch57x_usbhostbase.o(.data) for pHOST_TX_RAM_Addr
    ch57x_usbhostbase.o(i.CtrlGetConfigDescr) refers to ch57x_usbhostbase.o(i.CopySetupReqPkg) for CopySetupReqPkg
    ch57x_usbhostbase.o(i.CtrlGetConfigDescr) refers to ch57x_usbhostbase.o(i.HostCtrlTransfer) for HostCtrlTransfer
    ch57x_usbhostbase.o(i.CtrlGetConfigDescr) refers to memcpya.o(.text) for __aeabi_memcpy
    ch57x_usbhostbase.o(i.CtrlGetConfigDescr) refers to ch57x_usbhostbase.o(.constdata) for SetupGetCfgDescr
    ch57x_usbhostbase.o(i.CtrlGetConfigDescr) refers to ch57x_usbhostclass.o(.bss) for Com_Buffer
    ch57x_usbhostbase.o(i.CtrlGetConfigDescr) refers to ch57x_usbhostbase.o(.data) for pHOST_TX_RAM_Addr
    ch57x_usbhostbase.o(i.CtrlGetConfigDescr) refers to main.o(.bss) for TxBuffer
    ch57x_usbhostbase.o(i.CtrlGetDeviceDescr) refers to ch57x_usbhostbase.o(i.CopySetupReqPkg) for CopySetupReqPkg
    ch57x_usbhostbase.o(i.CtrlGetDeviceDescr) refers to ch57x_usbhostbase.o(i.HostCtrlTransfer) for HostCtrlTransfer
    ch57x_usbhostbase.o(i.CtrlGetDeviceDescr) refers to ch57x_usbhostbase.o(.data) for UsbDevEndp0Size
    ch57x_usbhostbase.o(i.CtrlGetDeviceDescr) refers to ch57x_usbhostbase.o(.constdata) for SetupGetDevDescr
    ch57x_usbhostbase.o(i.CtrlGetDeviceDescr) refers to ch57x_usbhostclass.o(.bss) for Com_Buffer
    ch57x_usbhostbase.o(i.CtrlSetUsbAddress) refers to ch57x_usbhostbase.o(i.CopySetupReqPkg) for CopySetupReqPkg
    ch57x_usbhostbase.o(i.CtrlSetUsbAddress) refers to ch57x_usbhostbase.o(i.HostCtrlTransfer) for HostCtrlTransfer
    ch57x_usbhostbase.o(i.CtrlSetUsbAddress) refers to ch57x_usbhostbase.o(i.SetHostUsbAddr) for SetHostUsbAddr
    ch57x_usbhostbase.o(i.CtrlSetUsbAddress) refers to ch57x_sys.o(i.mDelaymS) for mDelaymS
    ch57x_usbhostbase.o(i.CtrlSetUsbAddress) refers to ch57x_usbhostbase.o(.constdata) for SetupSetUsbAddr
    ch57x_usbhostbase.o(i.CtrlSetUsbAddress) refers to ch57x_usbhostbase.o(.data) for pHOST_TX_RAM_Addr
    ch57x_usbhostbase.o(i.CtrlSetUsbConfig) refers to ch57x_usbhostbase.o(i.CopySetupReqPkg) for CopySetupReqPkg
    ch57x_usbhostbase.o(i.CtrlSetUsbConfig) refers to ch57x_usbhostbase.o(i.HostCtrlTransfer) for HostCtrlTransfer
    ch57x_usbhostbase.o(i.CtrlSetUsbConfig) refers to ch57x_usbhostbase.o(.constdata) for SetupSetUsbConfig
    ch57x_usbhostbase.o(i.CtrlSetUsbConfig) refers to ch57x_usbhostbase.o(.data) for pHOST_TX_RAM_Addr
    ch57x_usbhostbase.o(i.CtrlSetUsbIntercace) refers to ch57x_usbhostbase.o(i.CopySetupReqPkg) for CopySetupReqPkg
    ch57x_usbhostbase.o(i.CtrlSetUsbIntercace) refers to ch57x_usbhostbase.o(i.HostCtrlTransfer) for HostCtrlTransfer
    ch57x_usbhostbase.o(i.CtrlSetUsbIntercace) refers to ch57x_usbhostbase.o(.constdata) for SetupSetUsbInterface
    ch57x_usbhostbase.o(i.CtrlSetUsbIntercace) refers to ch57x_usbhostbase.o(.data) for pHOST_TX_RAM_Addr
    ch57x_usbhostbase.o(i.DisableRootHubPort) refers to CH579MAI.o(.data) for CH579DiskStatus
    ch57x_usbhostbase.o(i.EnableRootHubPort) refers to CH579MAI.o(.data) for CH579DiskStatus
    ch57x_usbhostbase.o(i.HostCtrlTransfer) refers to ch57x_sys.o(i.mDelayuS) for mDelayuS
    ch57x_usbhostbase.o(i.HostCtrlTransfer) refers to ch57x_usbhostbase.o(i.USBHostTransact) for USBHostTransact
    ch57x_usbhostbase.o(i.HostCtrlTransfer) refers to ch57x_usbhostbase.o(.data) for pHOST_TX_RAM_Addr
    ch57x_usbhostbase.o(i.ResetRootHubPort) refers to ch57x_usbhostbase.o(i.SetHostUsbAddr) for SetHostUsbAddr
    ch57x_usbhostbase.o(i.ResetRootHubPort) refers to ch57x_usbhostbase.o(i.SetUsbSpeed) for SetUsbSpeed
    ch57x_usbhostbase.o(i.ResetRootHubPort) refers to ch57x_sys.o(i.mDelaymS) for mDelaymS
    ch57x_usbhostbase.o(i.ResetRootHubPort) refers to ch57x_sys.o(i.mDelayuS) for mDelayuS
    ch57x_usbhostbase.o(i.ResetRootHubPort) refers to ch57x_usbhostbase.o(.data) for UsbDevEndp0Size
    ch57x_usbhostbase.o(i.USBHostTransact) refers to ch57x_usbhostbase.o(i.AnalyzeRootHub) for AnalyzeRootHub
    ch57x_usbhostbase.o(i.USBHostTransact) refers to ch57x_sys.o(i.mDelayuS) for mDelayuS
    ch57x_usbhostbase.o(i.USBHostTransact) refers to ch57x_usbhostbase.o(.data) for FoundNewDev
    ch57x_usbhostbase.o(i.USBHostTransact) refers to CH579MAI.o(.data) for CH579DiskStatus
    ch57x_usbhostbase.o(i.USB_HostInit) refers to ch57x_usbhostbase.o(i.DisableRootHubPort) for DisableRootHubPort
    ch57x_usbhostbase.o(i.USB_HostInit) refers to ch57x_usbhostbase.o(.data) for pHOST_RX_RAM_Addr
    ch57x_usbhostclass.o(i.CtrlGetHIDDeviceReport) refers to ch57x_usbhostbase.o(i.CopySetupReqPkg) for CopySetupReqPkg
    ch57x_usbhostclass.o(i.CtrlGetHIDDeviceReport) refers to ch57x_usbhostbase.o(i.HostCtrlTransfer) for HostCtrlTransfer
    ch57x_usbhostclass.o(i.CtrlGetHIDDeviceReport) refers to ch57x_usbhostclass.o(.constdata) for SetupSetHIDIdle
    ch57x_usbhostclass.o(i.CtrlGetHIDDeviceReport) refers to ch57x_usbhostbase.o(.data) for pHOST_TX_RAM_Addr
    ch57x_usbhostclass.o(i.CtrlGetHIDDeviceReport) refers to ch57x_usbhostclass.o(.bss) for Com_Buffer
    ch57x_usbhostclass.o(i.CtrlGetHubDescr) refers to ch57x_usbhostbase.o(i.CopySetupReqPkg) for CopySetupReqPkg
    ch57x_usbhostclass.o(i.CtrlGetHubDescr) refers to ch57x_usbhostbase.o(i.HostCtrlTransfer) for HostCtrlTransfer
    ch57x_usbhostclass.o(i.CtrlGetHubDescr) refers to ch57x_usbhostclass.o(.constdata) for SetupGetHubDescr
    ch57x_usbhostclass.o(i.CtrlGetHubDescr) refers to ch57x_usbhostclass.o(.bss) for Com_Buffer
    ch57x_usbhostclass.o(i.HubClearPortFeature) refers to ch57x_usbhostbase.o(i.HostCtrlTransfer) for HostCtrlTransfer
    ch57x_usbhostclass.o(i.HubClearPortFeature) refers to ch57x_usbhostbase.o(.data) for pHOST_TX_RAM_Addr
    ch57x_usbhostclass.o(i.HubGetPortStatus) refers to ch57x_usbhostbase.o(i.HostCtrlTransfer) for HostCtrlTransfer
    ch57x_usbhostclass.o(i.HubGetPortStatus) refers to ch57x_usbhostbase.o(.data) for pHOST_TX_RAM_Addr
    ch57x_usbhostclass.o(i.HubGetPortStatus) refers to ch57x_usbhostclass.o(.bss) for Com_Buffer
    ch57x_usbhostclass.o(i.HubSetPortFeature) refers to ch57x_usbhostbase.o(i.HostCtrlTransfer) for HostCtrlTransfer
    ch57x_usbhostclass.o(i.HubSetPortFeature) refers to ch57x_usbhostbase.o(.data) for pHOST_TX_RAM_Addr
    ch57x_usbhostclass.o(i.InitRootDevice) refers to ch57x_usbhostbase.o(i.ResetRootHubPort) for ResetRootHubPort
    ch57x_usbhostclass.o(i.InitRootDevice) refers to ch57x_sys.o(i.mDelaymS) for mDelaymS
    ch57x_usbhostclass.o(i.InitRootDevice) refers to ch57x_usbhostbase.o(i.EnableRootHubPort) for EnableRootHubPort
    ch57x_usbhostclass.o(i.InitRootDevice) refers to ch57x_usbhostbase.o(i.DisableRootHubPort) for DisableRootHubPort
    ch57x_usbhostclass.o(i.InitRootDevice) refers to ch57x_usbhostbase.o(i.SetUsbSpeed) for SetUsbSpeed
    ch57x_usbhostclass.o(i.InitRootDevice) refers to ch57x_usbhostbase.o(i.CtrlGetDeviceDescr) for CtrlGetDeviceDescr
    ch57x_usbhostclass.o(i.InitRootDevice) refers to ch57x_usbhostbase.o(i.CtrlSetUsbAddress) for CtrlSetUsbAddress
    ch57x_usbhostclass.o(i.InitRootDevice) refers to ch57x_usbhostbase.o(i.CtrlGetConfigDescr) for CtrlGetConfigDescr
    ch57x_usbhostclass.o(i.InitRootDevice) refers to ch57x_usbhostbase.o(.bss) for ThisUsbDev
    ch57x_usbhostclass.o(i.InitRootDevice) refers to ch57x_usbhostbase.o(.constdata) for SetupGetDevDescr
    ch57x_usbhostclass.o(i.InitRootDevice) refers to ch57x_usbhostclass.o(.bss) for Com_Buffer
    ch57x_usbhostclass.o(i.InitRootDevice) refers to CH579MAI.o(.data) for CH579DiskStatus
    startup_armcm0.o(RESET) refers to startup_armcm0.o(.text) for Reset_Handler
    startup_armcm0.o(RESET) refers to ch57x_int.o(i.NMI_Handler) for NMI_Handler
    startup_armcm0.o(RESET) refers to sys_tick.o(i.SysTick_Handler) for SysTick_Handler
    startup_armcm0.o(RESET) refers to time.o(i.TMR0_IRQHandler) for TMR0_IRQHandler
    startup_armcm0.o(RESET) refers to net_init.o(i.ETH_IRQHandler) for ETH_IRQHandler
    startup_armcm0.o(RESET) refers to uart.o(i.UART0_IRQHandler) for UART0_IRQHandler
    startup_armcm0.o(RESET) refers to uart.o(i.UART1_IRQHandler) for UART1_IRQHandler
    startup_armcm0.o(RESET) refers to uart.o(i.UART2_IRQHandler) for UART2_IRQHandler
    startup_armcm0.o(RESET) refers to uart.o(i.UART3_IRQHandler) for UART3_IRQHandler
    startup_armcm0.o(.text) refers to ch57x_clk.o(i.SystemInit) for SystemInit
    startup_armcm0.o(.text) refers to entry.o(.ARM.Collect$$$$00000000) for __main
    ch579ufi.o(i.CH579DiskConnect) refers to CH579MAI.o(.data) for CH579DiskStatus
    ch579ufi.o(i.CH579LibInit) refers to CH579MAI.o(.text) for CH579GetVer
    ch579ufi.o(i.CH579LibInit) refers to ch579ufi.o(.bss) for DISK_BASE_BUF
    ch579ufi.o(i.CH579LibInit) refers to CH579MAI.o(.data) for pDISK_BASE_BUF
    ch579ufi.o(i.CH579ReadSector) refers to uwrite4.o(.text) for __aeabi_uwrite4
    ch579ufi.o(i.CH579ReadSector) refers to CH579MAI.o(.text) for CH579BulkOnlyCmd
    ch579ufi.o(i.CH579ReadSector) refers to CH579MAI.o(.data) for CH579vSectorSizeB
    ch579ufi.o(i.CH579ReadSector) refers to main.o(.bss) for TxBuffer
    ch579ufi.o(i.CH579WriteSector) refers to uwrite4.o(.text) for __aeabi_uwrite4
    ch579ufi.o(i.CH579WriteSector) refers to CH579MAI.o(.text) for CH579BulkOnlyCmd
    ch579ufi.o(i.CH579WriteSector) refers to ch57x_sys.o(i.mDelayuS) for mDelayuS
    ch579ufi.o(i.CH579WriteSector) refers to CH579MAI.o(.data) for CH579vSectorSizeB
    ch579ufi.o(i.CH579WriteSector) refers to main.o(.bss) for TxBuffer
    buffermanage.o(i.BufferManageCreate) refers to looplist.o(i.rbCreate) for rbCreate
    buffermanage.o(i.BufferManageRead) refers to looplist.o(i.rbCanRead) for rbCanRead
    buffermanage.o(i.BufferManageRead) refers to looplist.o(i.rbRead) for rbRead
    buffermanage.o(i.BufferManageWrite) refers to looplist.o(i.rbCanWrite) for rbCanWrite
    buffermanage.o(i.BufferManageWrite) refers to looplist.o(i.PutData) for PutData
    looplist.o(i.PutData) refers to looplist.o(i.rbWrite) for rbWrite
    looplist.o(i.rbCanRead) refers to looplist.o(i.rbCapacity) for rbCapacity
    looplist.o(i.rbCanWrite) refers to looplist.o(i.rbCapacity) for rbCapacity
    looplist.o(i.rbCanWrite) refers to looplist.o(i.rbCanRead) for rbCanRead
    looplist.o(i.rbRead) refers to looplist.o(i.rbCanRead) for rbCanRead
    looplist.o(i.rbRead) refers to memcpya.o(.text) for __aeabi_memcpy
    looplist.o(i.rbRead) refers to looplist.o(i.rbCapacity) for rbCapacity
    looplist.o(i.rbWrite) refers to looplist.o(i.rbCanWrite) for rbCanWrite
    looplist.o(i.rbWrite) refers to looplist.o(i.rbCapacity) for rbCapacity
    looplist.o(i.rbWrite) refers to memcpya.o(.text) for __aeabi_memcpy
    net_init.o(i.CH57xNET_LibInit) refers to ch57xsock.o(i.CH57xNET_GetVer) for CH57xNET_GetVer
    net_init.o(i.CH57xNET_LibInit) refers to ch57xsock.o(i.CH57xNET_ConfigLIB) for CH57xNET_ConfigLIB
    net_init.o(i.CH57xNET_LibInit) refers to ch57xsock.o(i.CH57xNET_Init) for CH57xNET_Init
    net_init.o(i.CH57xNET_LibInit) refers to net_init.o(i.net_initkeeplive) for net_initkeeplive
    net_init.o(i.CH57xNET_LibInit) refers to ch57xsock.o(.data) for CH57xNETConfig
    net_init.o(i.ETH_IRQHandler) refers to ch57xsock.o(i.CH57xNET_ETHIsr) for CH57xNET_ETHIsr
    net_init.o(i.GetMacAddr) refers to ch57x_flash.o(i.GetMACAddress) for GetMACAddress
    net_init.o(i.net_init) refers to net_init.o(i.GetMacAddr) for GetMacAddr
    net_init.o(i.net_init) refers to net_init.o(i.CH57xNET_LibInit) for CH57xNET_LibInit
    net_init.o(i.net_init) refers to printf8.o(i.__0printf$8) for __2printf
    net_init.o(i.net_init) refers to ch57x_sys.o(i.mDelaymS) for mDelaymS
    net_init.o(i.net_init) refers to ch57x_sys.o(i.SYS_ResetExecute) for SYS_ResetExecute
    net_init.o(i.net_init) refers to net_init.o(i.NVIC_SetPriority) for NVIC_SetPriority
    net_init.o(i.net_init) refers to net_init.o(.data) for MACAddr
    net_init.o(i.net_initkeeplive) refers to ch57xsock.o(i.CH57xNET_ConfigKeepLive) for CH57xNET_ConfigKeepLive
    net_dhcp.o(i.CH57xNET_DHCPCallBack) refers to printf8.o(i.__0printf$8) for __2printf
    net_dhcp.o(i.CH57xNET_DHCPCallBack) refers to memcpya.o(.text) for __aeabi_memcpy
    net_dhcp.o(i.CH57xNET_DHCPCallBack) refers to net_dhcp.o(.data) for net_dhcp_ip
    net_dhcp.o(i.net_dhcp_while) refers to printf8.o(i.__0printf$8) for __2printf
    net_dhcp.o(i.net_dhcp_while) refers to ch57xnet_dhcp.o(i.CH57xNET_DHCPStart) for CH57xNET_DHCPStart
    net_dhcp.o(i.net_dhcp_while) refers to ch57xnet_dhcp.o(i.CH57xNET_DHCPStop) for CH57xNET_DHCPStop
    net_dhcp.o(i.net_dhcp_while) refers to ch57xsock.o(.bss) for CH57xInf
    net_dhcp.o(i.net_dhcp_while) refers to net_dhcp.o(.data) for net_dhcp_phy_state
    net_dhcp.o(i.net_dhcp_while) refers to net_dhcp.o(i.CH57xNET_DHCPCallBack) for CH57xNET_DHCPCallBack
    net_dns.o(i.net_dns_answer) refers to net_dns.o(i.net_dns_parse_name) for net_dns_parse_name
    net_dns.o(i.net_dns_answer) refers to net_dns.o(i.net_dns_get16) for net_dns_get16
    net_dns.o(i.net_dns_answer) refers to tcp.o(i.__ARM_common_switch8) for __ARM_common_switch8
    net_dns.o(i.net_dns_loop) refers to net_dns.o(i.net_dns_socket_close) for net_dns_socket_close
    net_dns.o(i.net_dns_loop) refers to net_dns.o(.data) for net_dns_start
    net_dns.o(i.net_dns_make_query_msg) refers to net_dns.o(i.net_dns_put16) for net_dns_put16
    net_dns.o(i.net_dns_make_query_msg) refers to strcpy.o(.text) for strcpy
    net_dns.o(i.net_dns_make_query_msg) refers to strlen.o(.text) for strlen
    net_dns.o(i.net_dns_make_query_msg) refers to strchr.o(.text) for strchr
    net_dns.o(i.net_dns_make_query_msg) refers to strncpy.o(.text) for strncpy
    net_dns.o(i.net_dns_make_query_msg) refers to net_dns.o(.data) for nds_msg_id
    net_dns.o(i.net_dns_parse) refers to net_dns.o(i.net_dns_parse_msg) for net_dns_parse_msg
    net_dns.o(i.net_dns_parse) refers to net_dns.o(.data) for net_dns_ip_copy
    net_dns.o(i.net_dns_parse_msg) refers to net_dns.o(i.net_dns_get16) for net_dns_get16
    net_dns.o(i.net_dns_parse_msg) refers to net_dns.o(i.net_dns_question) for net_dns_question
    net_dns.o(i.net_dns_parse_msg) refers to net_dns.o(i.net_dns_answer) for net_dns_answer
    net_dns.o(i.net_dns_query) refers to printf8.o(i.__0printf$8) for __2printf
    net_dns.o(i.net_dns_query) refers to net_dns.o(i.net_dns_socket_init) for net_dns_socket_init
    net_dns.o(i.net_dns_query) refers to net_dns.o(i.net_dns_make_query_msg) for net_dns_make_query_msg
    net_dns.o(i.net_dns_query) refers to net_dns.o(i.net_dns_socket_send) for net_dns_socket_send
    net_dns.o(i.net_dns_query) refers to net_dns.o(i.net_dns_socket_close) for net_dns_socket_close
    net_dns.o(i.net_dns_query) refers to net_dns.o(.data) for net_dns_start
    net_dns.o(i.net_dns_query) refers to ch57xsock.o(.bss) for CH57xInf
    net_dns.o(i.net_dns_query) refers to net_dns.o(.bss) for net_dns_buf
    net_dns.o(i.net_dns_question) refers to net_dns.o(i.net_dns_parse_name) for net_dns_parse_name
    net_dns.o(i.net_dns_socket_close) refers to ch57xsock.o(i.CH57xNET_SocketClose) for CH57xNET_SocketClose
    net_dns.o(i.net_dns_socket_close) refers to net_dns.o(.data) for net_dns_socket_index
    net_dns.o(i.net_dns_socket_data) refers to ch57xsock.o(i.CH57xNET_SocketRecvLen) for CH57xNET_SocketRecvLen
    net_dns.o(i.net_dns_socket_data) refers to ch57xsock.o(i.CH57xNET_SocketRecv) for CH57xNET_SocketRecv
    net_dns.o(i.net_dns_socket_data) refers to net_dns.o(i.net_dns_parse) for net_dns_parse
    net_dns.o(i.net_dns_socket_data) refers to net_dns.o(i.net_dns_socket_close) for net_dns_socket_close
    net_dns.o(i.net_dns_socket_data) refers to net_dns.o(.data) for net_dns_socket_index
    net_dns.o(i.net_dns_socket_data) refers to net_dns.o(.bss) for net_dns_socket_recv_buf
    net_dns.o(i.net_dns_socket_init) refers to memseta.o(.text) for __aeabi_memclr4
    net_dns.o(i.net_dns_socket_init) refers to memcpya.o(.text) for __aeabi_memcpy
    net_dns.o(i.net_dns_socket_init) refers to ch57xsock.o(i.CH57xNET_SocketCreat) for CH57xNET_SocketCreat
    net_dns.o(i.net_dns_socket_init) refers to printf8.o(i.__0printf$8) for __2printf
    net_dns.o(i.net_dns_socket_init) refers to net_dns.o(.bss) for net_dns_socket_buf
    net_dns.o(i.net_dns_socket_init) refers to net_dns.o(.data) for net_dns_socket_index
    net_dns.o(i.net_dns_socket_send) refers to ch57xsock.o(i.CH57xNET_SocketSend) for CH57xNET_SocketSend
    net_tcp_client.o(i.net_tcp_client_close) refers to ch57xsock.o(i.CH57xNET_SocketClose) for CH57xNET_SocketClose
    net_tcp_client.o(i.net_tcp_client_connect) refers to printf8.o(i.__0printf$8) for __2printf
    net_tcp_client.o(i.net_tcp_client_connect) refers to ch57xsock.o(i.CH57xNET_SocketConnect) for CH57xNET_SocketConnect
    net_tcp_client.o(i.net_tcp_client_creat_socket) refers to memseta.o(.text) for __aeabi_memclr4
    net_tcp_client.o(i.net_tcp_client_creat_socket) refers to ch57xsock.o(i.CH57xNET_SocketCreat) for CH57xNET_SocketCreat
    net_tcp_client.o(i.net_tcp_client_creat_socket) refers to printf8.o(i.__0printf$8) for __2printf
    net_tcp_client.o(i.net_tcp_client_creat_socket) refers to ch57xsock.o(i.CH57xNET_SocketSetKeepLive) for CH57xNET_SocketSetKeepLive
    net_tcp_client.o(i.net_tcp_client_data) refers to ch57xsock.o(i.CH57xNET_SocketRecvLen) for CH57xNET_SocketRecvLen
    net_tcp_client.o(i.net_tcp_client_data) refers to ch57xsock.o(i.CH57xNET_SocketRecv) for CH57xNET_SocketRecv
    net_tcp_client.o(i.net_tcp_client_data) refers to printf8.o(i.__0printf$8) for __2printf
    net_tcp_client.o(i.net_tcp_client_reconnect) refers to ch57xsock.o(i.CH57xNET_SocketClose) for CH57xNET_SocketClose
    net_tcp_client.o(i.net_tcp_client_reconnect) refers to net_tcp_client.o(i.net_tcp_client_creat_socket) for net_tcp_client_creat_socket
    net_tcp_client.o(i.net_tcp_client_reconnect) refers to net_tcp_client.o(i.net_tcp_client_connect) for net_tcp_client_connect
    net_tcp_client.o(i.net_tcp_client_send) refers to ch57xsock.o(i.CH57xNET_SocketSend) for CH57xNET_SocketSend
    net_tcp_server.o(i.net_tcp_server_close) refers to ch57xsock.o(i.CH57xNET_SocketClose) for CH57xNET_SocketClose
    net_tcp_server.o(i.net_tcp_server_creat_socket) refers to memseta.o(.text) for __aeabi_memclr4
    net_tcp_server.o(i.net_tcp_server_creat_socket) refers to ch57xsock.o(i.CH57xNET_SocketCreat) for CH57xNET_SocketCreat
    net_tcp_server.o(i.net_tcp_server_creat_socket) refers to ch57xsock.o(i.CH57xNET_SocketSetKeepLive) for CH57xNET_SocketSetKeepLive
    net_tcp_server.o(i.net_tcp_server_creat_socket) refers to ch57xsock.o(i.CH57xNET_SocketListen) for CH57xNET_SocketListen
    net_tcp_server.o(i.net_tcp_server_creat_socket) refers to printf8.o(i.__0printf$8) for __2printf
    net_tcp_server.o(i.net_tcp_server_creat_socket) refers to net_tcp_server.o(.data) for socket_client_t
    net_tcp_server.o(i.net_tcp_server_data) refers to ch57xsock.o(i.CH57xNET_SocketRecvLen) for CH57xNET_SocketRecvLen
    net_tcp_server.o(i.net_tcp_server_data) refers to ch57xsock.o(i.CH57xNET_SocketRecv) for CH57xNET_SocketRecv
    net_tcp_server.o(i.net_tcp_server_data) refers to ch57xsock.o(i.CH57xNET_ModifyRecvBuf) for CH57xNET_ModifyRecvBuf
    net_tcp_server.o(i.net_tcp_server_data) refers to net_tcp_server.o(.data) for socket_client_t
    net_tcp_server.o(i.net_tcp_server_data) refers to net_init.o(.bss) for SocketInf
    net_tcp_server.o(i.net_tcp_server_send) refers to ch57xsock.o(i.CH57xNET_SocketSend) for CH57xNET_SocketSend
    net_tcp_server.o(i.net_tcp_server_send) refers to printf8.o(i.__0printf$8) for __2printf
    CH579MAI.o(.text) refers to ch579ufi.o(i.CH579ReadSector) for CH579ReadSector
    CH579MAI.o(.text) refers to ch579ufi.o(i.CH579WriteSector) for CH579WriteSector
    CH579MAI.o(.text) refers to ch579ufi.o(i.CH579DiskConnect) for CH579DiskConnect
    CH579MAI.o(.text) refers to CH579MAI.o(.data) for .data
    CH579MAI.o(.text) refers to ch57x_sys.o(i.mDelaymS) for mDelaymS
    CH579MAI.o(.text) refers to ch57x_usbhostbase.o(i.CopySetupReqPkg) for CopySetupReqPkg
    CH579MAI.o(.text) refers to ch57x_usbhostbase.o(i.HostCtrlTransfer) for HostCtrlTransfer
    CH579MAI.o(.text) refers to ch57x_usbhostbase.o(i.CtrlClearEndpStall) for CtrlClearEndpStall
    CH579MAI.o(.text) refers to uwrite4.o(.text) for __aeabi_uwrite4
    CH579MAI.o(.text) refers to ch57x_usbhostbase.o(i.USBHostTransact) for USBHostTransact
    CH579MAI.o(.text) refers to uread4.o(.text) for __aeabi_uread4
    CH579MAI.o(.text) refers to ch57x_usbhostbase.o(i.CtrlGetConfigDescr) for CtrlGetConfigDescr
    CH579MAI.o(.text) refers to main.o(.bss) for TxBuffer
    CH579MAI.o(.text) refers to ch57x_usbhostbase.o(i.CtrlSetUsbConfig) for CtrlSetUsbConfig
    CH579MAI.o(.text) refers to ch579ufi.o(.bss) for mCmdParam
    CH579MAI.o(.text) refers to ch579ufi.o(i.xFileNameEnumer) for xFileNameEnumer
    ch57xnet_dhcp.o(i.CH57xNET_DHCPHandle) refers to memseta.o(.text) for __aeabi_memclr4
    ch57xnet_dhcp.o(i.CH57xNET_DHCPHandle) refers to ethernetif.o(.bss) for DHCPCtrl
    ch57xnet_dhcp.o(i.CH57xNET_DHCPHandle) refers to ch57xsock.o(.bss) for CH57xInf
    ch57xnet_dhcp.o(i.CH57xNET_DHCPStart) refers to memseta.o(.text) for __aeabi_memclr4
    ch57xnet_dhcp.o(i.CH57xNET_DHCPStart) refers to ch57xnet_dhcp.o(i.dhcp_start) for dhcp_start
    ch57xnet_dhcp.o(i.CH57xNET_DHCPStart) refers to ch57xsock.o(i.ErrorEncode) for ErrorEncode
    ch57xnet_dhcp.o(i.CH57xNET_DHCPStart) refers to ethernetif.o(.bss) for DHCPCtrl
    ch57xnet_dhcp.o(i.CH57xNET_DHCPStart) refers to ch57xnet_dhcp.o(i.dhcp_fine_tmr) for dhcp_fine_tmr
    ch57xnet_dhcp.o(i.CH57xNET_DHCPStart) refers to ch57xnet_dhcp.o(i.dhcp_coarse_tmr) for dhcp_coarse_tmr
    ch57xnet_dhcp.o(i.CH57xNET_DHCPStart) refers to ch57xnet_dhcp.o(i.dhcp_arp_reply) for dhcp_arp_reply
    ch57xnet_dhcp.o(i.CH57xNET_DHCPStart) refers to ch57xnet_dhcp.o(.data) for .data
    ch57xnet_dhcp.o(i.CH57xNET_DHCPStop) refers to ch57xnet_dhcp.o(i.dhcp_stop) for dhcp_stop
    ch57xnet_dhcp.o(i.CH57xNET_DHCPStop) refers to memseta.o(.text) for __aeabi_memclr4
    ch57xnet_dhcp.o(i.CH57xNET_DHCPStop) refers to ethernetif.o(.bss) for CH57xNetIf
    ch57xnet_dhcp.o(i.dhcp_arp_reply) refers to uread4.o(.text) for __aeabi_uread4
    ch57xnet_dhcp.o(i.dhcp_arp_reply) refers to ch57xnet_dhcp.o(i.dhcp_decline) for dhcp_decline
    ch57xnet_dhcp.o(i.dhcp_bind) refers to uidiv.o(.text) for __aeabi_uidivmod
    ch57xnet_dhcp.o(i.dhcp_bind) refers to inet.o(i.ntohl) for ntohl
    ch57xnet_dhcp.o(i.dhcp_bind) refers to inet.o(i.htonl) for htonl
    ch57xnet_dhcp.o(i.dhcp_bind) refers to netif.o(i.netif_set_ipaddr) for netif_set_ipaddr
    ch57xnet_dhcp.o(i.dhcp_bind) refers to netif.o(i.netif_set_netmask) for netif_set_netmask
    ch57xnet_dhcp.o(i.dhcp_bind) refers to netif.o(i.netif_set_gw) for netif_set_gw
    ch57xnet_dhcp.o(i.dhcp_bind) refers to netif.o(i.netif_set_up) for netif_set_up
    ch57xnet_dhcp.o(i.dhcp_bind) refers to ch57xnet_dhcp.o(i.dhcp_set_state) for dhcp_set_state
    ch57xnet_dhcp.o(i.dhcp_bind) refers to ch57xnet_dhcp.o(i.CH57xNET_DHCPHandle) for CH57xNET_DHCPHandle
    ch57xnet_dhcp.o(i.dhcp_bind) refers to ch57xsock.o(.bss) for CH57xInf
    ch57xnet_dhcp.o(i.dhcp_bind) refers to ch57xnet_dhcp.o(.data) for .data
    ch57xnet_dhcp.o(i.dhcp_check) refers to ch57xnet_dhcp.o(i.dhcp_set_state) for dhcp_set_state
    ch57xnet_dhcp.o(i.dhcp_check) refers to etharp.o(i.etharp_query) for etharp_query
    ch57xnet_dhcp.o(i.dhcp_coarse_tmr) refers to ch57xnet_dhcp.o(i.dhcp_rebind) for dhcp_rebind
    ch57xnet_dhcp.o(i.dhcp_coarse_tmr) refers to ch57xnet_dhcp.o(i.dhcp_renew) for dhcp_renew
    ch57xnet_dhcp.o(i.dhcp_coarse_tmr) refers to netif.o(.data) for netif_list
    ch57xnet_dhcp.o(i.dhcp_create_request) refers to pbuf.o(i.pbuf_alloc) for pbuf_alloc
    ch57xnet_dhcp.o(i.dhcp_create_request) refers to inet.o(i.htonl) for htonl
    ch57xnet_dhcp.o(i.dhcp_create_request) refers to uwrite4.o(.text) for __aeabi_uwrite4
    ch57xnet_dhcp.o(i.dhcp_create_request) refers to ch57xnet_dhcp.o(.data) for .data
    ch57xnet_dhcp.o(i.dhcp_decline) refers to ch57xnet_dhcp.o(i.dhcp_set_state) for dhcp_set_state
    ch57xnet_dhcp.o(i.dhcp_decline) refers to ch57xnet_dhcp.o(i.dhcp_create_request) for dhcp_create_request
    ch57xnet_dhcp.o(i.dhcp_decline) refers to ch57xnet_dhcp.o(i.dhcp_option) for dhcp_option
    ch57xnet_dhcp.o(i.dhcp_decline) refers to ch57xnet_dhcp.o(i.dhcp_option_byte) for dhcp_option_byte
    ch57xnet_dhcp.o(i.dhcp_decline) refers to inet.o(i.ntohl) for ntohl
    ch57xnet_dhcp.o(i.dhcp_decline) refers to ch57xnet_dhcp.o(i.dhcp_option_long) for dhcp_option_long
    ch57xnet_dhcp.o(i.dhcp_decline) refers to ch57xnet_dhcp.o(i.dhcp_option_mac) for dhcp_option_mac
    ch57xnet_dhcp.o(i.dhcp_decline) refers to ch57xnet_dhcp.o(i.dhcp_option_trailer) for dhcp_option_trailer
    ch57xnet_dhcp.o(i.dhcp_decline) refers to pbuf.o(i.pbuf_realloc) for pbuf_realloc
    ch57xnet_dhcp.o(i.dhcp_decline) refers to uwrite4.o(.text) for __aeabi_uwrite4
    ch57xnet_dhcp.o(i.dhcp_decline) refers to udp.o(i.udp_sendto_if) for udp_sendto_if
    ch57xnet_dhcp.o(i.dhcp_decline) refers to ch57xnet_dhcp.o(i.dhcp_delete_request) for dhcp_delete_request
    ch57xnet_dhcp.o(i.dhcp_decline) refers to ip_addr.o(.constdata) for ip_addr_broadcast
    ch57xnet_dhcp.o(i.dhcp_delete_request) refers to pbuf.o(i.pbuf_free) for pbuf_free
    ch57xnet_dhcp.o(i.dhcp_discover) refers to uread4.o(.text) for __aeabi_uread4
    ch57xnet_dhcp.o(i.dhcp_discover) refers to ch57xnet_dhcp.o(i.dhcp_set_state) for dhcp_set_state
    ch57xnet_dhcp.o(i.dhcp_discover) refers to ch57xnet_dhcp.o(i.dhcp_create_request) for dhcp_create_request
    ch57xnet_dhcp.o(i.dhcp_discover) refers to ch57xnet_dhcp.o(i.dhcp_option) for dhcp_option
    ch57xnet_dhcp.o(i.dhcp_discover) refers to ch57xnet_dhcp.o(i.dhcp_option_byte) for dhcp_option_byte
    ch57xnet_dhcp.o(i.dhcp_discover) refers to ch57xnet_dhcp.o(i.dhcp_option_short) for dhcp_option_short
    ch57xnet_dhcp.o(i.dhcp_discover) refers to ch57xnet_dhcp.o(i.dhcp_option_trailer) for dhcp_option_trailer
    ch57xnet_dhcp.o(i.dhcp_discover) refers to pbuf.o(i.pbuf_realloc) for pbuf_realloc
    ch57xnet_dhcp.o(i.dhcp_discover) refers to udp.o(i.udp_sendto_if) for udp_sendto_if
    ch57xnet_dhcp.o(i.dhcp_discover) refers to ch57xnet_dhcp.o(i.dhcp_delete_request) for dhcp_delete_request
    ch57xnet_dhcp.o(i.dhcp_discover) refers to uidiv.o(.text) for __aeabi_uidivmod
    ch57xnet_dhcp.o(i.dhcp_discover) refers to ip_addr.o(.constdata) for ip_addr_any
    ch57xnet_dhcp.o(i.dhcp_discover) refers to ip_addr.o(.constdata) for ip_addr_broadcast
    ch57xnet_dhcp.o(i.dhcp_fine_tmr) refers to ch57xnet_dhcp.o(i.dhcp_timeout) for dhcp_timeout
    ch57xnet_dhcp.o(i.dhcp_fine_tmr) refers to ch57xnet_dhcp.o(i.CH57xNET_DHCPHandle) for CH57xNET_DHCPHandle
    ch57xnet_dhcp.o(i.dhcp_fine_tmr) refers to netif.o(.data) for netif_list
    ch57xnet_dhcp.o(i.dhcp_free_reply) refers to mem.o(i.mem_free) for mem_free
    ch57xnet_dhcp.o(i.dhcp_handle_ack) refers to ch57xnet_dhcp.o(i.dhcp_get_option_ptr) for dhcp_get_option_ptr
    ch57xnet_dhcp.o(i.dhcp_handle_ack) refers to ch57xnet_dhcp.o(i.dhcp_get_option_long) for dhcp_get_option_long
    ch57xnet_dhcp.o(i.dhcp_handle_ack) refers to uread4.o(.text) for __aeabi_uread4
    ch57xnet_dhcp.o(i.dhcp_handle_ack) refers to inet.o(i.htonl) for htonl
    ch57xnet_dhcp.o(i.dhcp_handle_ack) refers to ch57xnet_nds.o(i.dns_setserver) for dns_setserver
    ch57xnet_dhcp.o(i.dhcp_handle_ack) refers to ip_addr.o(.constdata) for ip_addr_any
    ch57xnet_dhcp.o(i.dhcp_inform) refers to mem.o(i.mem_malloc) for mem_malloc
    ch57xnet_dhcp.o(i.dhcp_inform) refers to memseta.o(.text) for __aeabi_memclr4
    ch57xnet_dhcp.o(i.dhcp_inform) refers to udp.o(i.udp_new) for udp_new
    ch57xnet_dhcp.o(i.dhcp_inform) refers to ch57xnet_dhcp.o(i.dhcp_create_request) for dhcp_create_request
    ch57xnet_dhcp.o(i.dhcp_inform) refers to ch57xnet_dhcp.o(i.dhcp_option) for dhcp_option
    ch57xnet_dhcp.o(i.dhcp_inform) refers to ch57xnet_dhcp.o(i.dhcp_option_byte) for dhcp_option_byte
    ch57xnet_dhcp.o(i.dhcp_inform) refers to ch57xnet_dhcp.o(i.dhcp_option_short) for dhcp_option_short
    ch57xnet_dhcp.o(i.dhcp_inform) refers to ch57xnet_dhcp.o(i.dhcp_option_trailer) for dhcp_option_trailer
    ch57xnet_dhcp.o(i.dhcp_inform) refers to pbuf.o(i.pbuf_realloc) for pbuf_realloc
    ch57xnet_dhcp.o(i.dhcp_inform) refers to udp.o(i.udp_bind) for udp_bind
    ch57xnet_dhcp.o(i.dhcp_inform) refers to udp.o(i.udp_sendto_if) for udp_sendto_if
    ch57xnet_dhcp.o(i.dhcp_inform) refers to ch57xnet_dhcp.o(i.dhcp_delete_request) for dhcp_delete_request
    ch57xnet_dhcp.o(i.dhcp_inform) refers to udp.o(i.udp_remove) for udp_remove
    ch57xnet_dhcp.o(i.dhcp_inform) refers to mem.o(i.mem_free) for mem_free
    ch57xnet_dhcp.o(i.dhcp_inform) refers to ip_addr.o(.constdata) for ip_addr_any
    ch57xnet_dhcp.o(i.dhcp_inform) refers to ip_addr.o(.constdata) for ip_addr_broadcast
    ch57xnet_dhcp.o(i.dhcp_network_changed) refers to ch57xnet_dhcp.o(i.dhcp_discover) for dhcp_discover
    ch57xnet_dhcp.o(i.dhcp_network_changed) refers to netif.o(i.netif_set_down) for netif_set_down
    ch57xnet_dhcp.o(i.dhcp_network_changed) refers to ch57xnet_dhcp.o(i.dhcp_reboot) for dhcp_reboot
    ch57xnet_dhcp.o(i.dhcp_rebind) refers to ch57xnet_dhcp.o(i.dhcp_set_state) for dhcp_set_state
    ch57xnet_dhcp.o(i.dhcp_rebind) refers to ch57xnet_dhcp.o(i.dhcp_create_request) for dhcp_create_request
    ch57xnet_dhcp.o(i.dhcp_rebind) refers to ch57xnet_dhcp.o(i.dhcp_option) for dhcp_option
    ch57xnet_dhcp.o(i.dhcp_rebind) refers to ch57xnet_dhcp.o(i.dhcp_option_byte) for dhcp_option_byte
    ch57xnet_dhcp.o(i.dhcp_rebind) refers to ch57xnet_dhcp.o(i.dhcp_option_short) for dhcp_option_short
    ch57xnet_dhcp.o(i.dhcp_rebind) refers to strlen.o(.text) for strlen
    ch57xnet_dhcp.o(i.dhcp_rebind) refers to ch57xnet_dhcp.o(i.dhcp_option_trailer) for dhcp_option_trailer
    ch57xnet_dhcp.o(i.dhcp_rebind) refers to pbuf.o(i.pbuf_realloc) for pbuf_realloc
    ch57xnet_dhcp.o(i.dhcp_rebind) refers to udp.o(i.udp_sendto_if) for udp_sendto_if
    ch57xnet_dhcp.o(i.dhcp_rebind) refers to ch57xnet_dhcp.o(i.dhcp_delete_request) for dhcp_delete_request
    ch57xnet_dhcp.o(i.dhcp_rebind) refers to uidiv.o(.text) for __aeabi_uidivmod
    ch57xnet_dhcp.o(i.dhcp_rebind) refers to ip_addr.o(.constdata) for ip_addr_broadcast
    ch57xnet_dhcp.o(i.dhcp_reboot) refers to ch57xnet_dhcp.o(i.dhcp_set_state) for dhcp_set_state
    ch57xnet_dhcp.o(i.dhcp_reboot) refers to ch57xnet_dhcp.o(i.dhcp_create_request) for dhcp_create_request
    ch57xnet_dhcp.o(i.dhcp_reboot) refers to ch57xnet_dhcp.o(i.dhcp_option) for dhcp_option
    ch57xnet_dhcp.o(i.dhcp_reboot) refers to ch57xnet_dhcp.o(i.dhcp_option_byte) for dhcp_option_byte
    ch57xnet_dhcp.o(i.dhcp_reboot) refers to ch57xnet_dhcp.o(i.dhcp_option_short) for dhcp_option_short
    ch57xnet_dhcp.o(i.dhcp_reboot) refers to inet.o(i.ntohl) for ntohl
    ch57xnet_dhcp.o(i.dhcp_reboot) refers to ch57xnet_dhcp.o(i.dhcp_option_long) for dhcp_option_long
    ch57xnet_dhcp.o(i.dhcp_reboot) refers to ch57xnet_dhcp.o(i.dhcp_option_trailer) for dhcp_option_trailer
    ch57xnet_dhcp.o(i.dhcp_reboot) refers to pbuf.o(i.pbuf_realloc) for pbuf_realloc
    ch57xnet_dhcp.o(i.dhcp_reboot) refers to udp.o(i.udp_sendto_if) for udp_sendto_if
    ch57xnet_dhcp.o(i.dhcp_reboot) refers to ch57xnet_dhcp.o(i.dhcp_delete_request) for dhcp_delete_request
    ch57xnet_dhcp.o(i.dhcp_reboot) refers to uidiv.o(.text) for __aeabi_uidivmod
    ch57xnet_dhcp.o(i.dhcp_reboot) refers to ip_addr.o(.constdata) for ip_addr_broadcast
    ch57xnet_dhcp.o(i.dhcp_recv) refers to uread4.o(.text) for __aeabi_uread4
    ch57xnet_dhcp.o(i.dhcp_recv) refers to inet.o(i.ntohl) for ntohl
    ch57xnet_dhcp.o(i.dhcp_recv) refers to ch57xnet_dhcp.o(i.dhcp_unfold_reply) for dhcp_unfold_reply
    ch57xnet_dhcp.o(i.dhcp_recv) refers to ch57xnet_dhcp.o(i.dhcp_get_option_ptr) for dhcp_get_option_ptr
    ch57xnet_dhcp.o(i.dhcp_recv) refers to ch57xnet_dhcp.o(i.dhcp_handle_ack) for dhcp_handle_ack
    ch57xnet_dhcp.o(i.dhcp_recv) refers to ch57xnet_dhcp.o(i.dhcp_check) for dhcp_check
    ch57xnet_dhcp.o(i.dhcp_recv) refers to ch57xnet_dhcp.o(i.dhcp_bind) for dhcp_bind
    ch57xnet_dhcp.o(i.dhcp_recv) refers to netif.o(i.netif_set_down) for netif_set_down
    ch57xnet_dhcp.o(i.dhcp_recv) refers to netif.o(i.netif_set_ipaddr) for netif_set_ipaddr
    ch57xnet_dhcp.o(i.dhcp_recv) refers to netif.o(i.netif_set_gw) for netif_set_gw
    ch57xnet_dhcp.o(i.dhcp_recv) refers to netif.o(i.netif_set_netmask) for netif_set_netmask
    ch57xnet_dhcp.o(i.dhcp_recv) refers to ch57xnet_dhcp.o(i.dhcp_set_state) for dhcp_set_state
    ch57xnet_dhcp.o(i.dhcp_recv) refers to ch57xnet_dhcp.o(i.dhcp_discover) for dhcp_discover
    ch57xnet_dhcp.o(i.dhcp_recv) refers to ch57xnet_dhcp.o(i.dhcp_get_option_long) for dhcp_get_option_long
    ch57xnet_dhcp.o(i.dhcp_recv) refers to inet.o(i.htonl) for htonl
    ch57xnet_dhcp.o(i.dhcp_recv) refers to ch57xnet_dhcp.o(i.dhcp_select) for dhcp_select
    ch57xnet_dhcp.o(i.dhcp_recv) refers to ch57xnet_dhcp.o(i.dhcp_free_reply) for dhcp_free_reply
    ch57xnet_dhcp.o(i.dhcp_recv) refers to pbuf.o(i.pbuf_free) for pbuf_free
    ch57xnet_dhcp.o(i.dhcp_recv) refers to ip_addr.o(.constdata) for ip_addr_any
    ch57xnet_dhcp.o(i.dhcp_release) refers to ch57xnet_dhcp.o(i.dhcp_set_state) for dhcp_set_state
    ch57xnet_dhcp.o(i.dhcp_release) refers to ch57xnet_dhcp.o(i.dhcp_create_request) for dhcp_create_request
    ch57xnet_dhcp.o(i.dhcp_release) refers to ch57xnet_dhcp.o(i.dhcp_option) for dhcp_option
    ch57xnet_dhcp.o(i.dhcp_release) refers to ch57xnet_dhcp.o(i.dhcp_option_byte) for dhcp_option_byte
    ch57xnet_dhcp.o(i.dhcp_release) refers to ch57xnet_dhcp.o(i.dhcp_option_trailer) for dhcp_option_trailer
    ch57xnet_dhcp.o(i.dhcp_release) refers to pbuf.o(i.pbuf_realloc) for pbuf_realloc
    ch57xnet_dhcp.o(i.dhcp_release) refers to udp.o(i.udp_sendto_if) for udp_sendto_if
    ch57xnet_dhcp.o(i.dhcp_release) refers to ch57xnet_dhcp.o(i.dhcp_delete_request) for dhcp_delete_request
    ch57xnet_dhcp.o(i.dhcp_release) refers to uidiv.o(.text) for __aeabi_uidivmod
    ch57xnet_dhcp.o(i.dhcp_release) refers to netif.o(i.netif_set_down) for netif_set_down
    ch57xnet_dhcp.o(i.dhcp_release) refers to netif.o(i.netif_set_ipaddr) for netif_set_ipaddr
    ch57xnet_dhcp.o(i.dhcp_release) refers to netif.o(i.netif_set_gw) for netif_set_gw
    ch57xnet_dhcp.o(i.dhcp_release) refers to netif.o(i.netif_set_netmask) for netif_set_netmask
    ch57xnet_dhcp.o(i.dhcp_release) refers to ip_addr.o(.constdata) for ip_addr_any
    ch57xnet_dhcp.o(i.dhcp_renew) refers to ch57xnet_dhcp.o(i.dhcp_set_state) for dhcp_set_state
    ch57xnet_dhcp.o(i.dhcp_renew) refers to ch57xnet_dhcp.o(i.dhcp_create_request) for dhcp_create_request
    ch57xnet_dhcp.o(i.dhcp_renew) refers to ch57xnet_dhcp.o(i.dhcp_option) for dhcp_option
    ch57xnet_dhcp.o(i.dhcp_renew) refers to ch57xnet_dhcp.o(i.dhcp_option_byte) for dhcp_option_byte
    ch57xnet_dhcp.o(i.dhcp_renew) refers to ch57xnet_dhcp.o(i.dhcp_option_short) for dhcp_option_short
    ch57xnet_dhcp.o(i.dhcp_renew) refers to strlen.o(.text) for strlen
    ch57xnet_dhcp.o(i.dhcp_renew) refers to ch57xnet_dhcp.o(i.dhcp_option_trailer) for dhcp_option_trailer
    ch57xnet_dhcp.o(i.dhcp_renew) refers to pbuf.o(i.pbuf_realloc) for pbuf_realloc
    ch57xnet_dhcp.o(i.dhcp_renew) refers to udp.o(i.udp_sendto_if) for udp_sendto_if
    ch57xnet_dhcp.o(i.dhcp_renew) refers to ch57xnet_dhcp.o(i.dhcp_delete_request) for dhcp_delete_request
    ch57xnet_dhcp.o(i.dhcp_renew) refers to uidiv.o(.text) for __aeabi_uidivmod
    ch57xnet_dhcp.o(i.dhcp_select) refers to ch57xnet_dhcp.o(i.dhcp_set_state) for dhcp_set_state
    ch57xnet_dhcp.o(i.dhcp_select) refers to ch57xnet_dhcp.o(i.dhcp_create_request) for dhcp_create_request
    ch57xnet_dhcp.o(i.dhcp_select) refers to ch57xnet_dhcp.o(i.dhcp_option) for dhcp_option
    ch57xnet_dhcp.o(i.dhcp_select) refers to ch57xnet_dhcp.o(i.dhcp_option_byte) for dhcp_option_byte
    ch57xnet_dhcp.o(i.dhcp_select) refers to ch57xnet_dhcp.o(i.dhcp_option_short) for dhcp_option_short
    ch57xnet_dhcp.o(i.dhcp_select) refers to inet.o(i.ntohl) for ntohl
    ch57xnet_dhcp.o(i.dhcp_select) refers to ch57xnet_dhcp.o(i.dhcp_option_long) for dhcp_option_long
    ch57xnet_dhcp.o(i.dhcp_select) refers to strlen.o(.text) for strlen
    ch57xnet_dhcp.o(i.dhcp_select) refers to ch57xnet_dhcp.o(i.dhcp_option_trailer) for dhcp_option_trailer
    ch57xnet_dhcp.o(i.dhcp_select) refers to pbuf.o(i.pbuf_realloc) for pbuf_realloc
    ch57xnet_dhcp.o(i.dhcp_select) refers to udp.o(i.udp_sendto_if) for udp_sendto_if
    ch57xnet_dhcp.o(i.dhcp_select) refers to ch57xnet_dhcp.o(i.dhcp_delete_request) for dhcp_delete_request
    ch57xnet_dhcp.o(i.dhcp_select) refers to uidiv.o(.text) for __aeabi_uidivmod
    ch57xnet_dhcp.o(i.dhcp_select) refers to ip_addr.o(.constdata) for ip_addr_broadcast
    ch57xnet_dhcp.o(i.dhcp_start) refers to udp.o(i.udp_remove) for udp_remove
    ch57xnet_dhcp.o(i.dhcp_start) refers to memseta.o(.text) for __aeabi_memclr4
    ch57xnet_dhcp.o(i.dhcp_start) refers to udp.o(i.udp_new) for udp_new
    ch57xnet_dhcp.o(i.dhcp_start) refers to udp.o(i.udp_bind) for udp_bind
    ch57xnet_dhcp.o(i.dhcp_start) refers to udp.o(i.udp_connect) for udp_connect
    ch57xnet_dhcp.o(i.dhcp_start) refers to udp.o(i.udp_recv) for udp_recv
    ch57xnet_dhcp.o(i.dhcp_start) refers to ch57xnet_dhcp.o(i.dhcp_discover) for dhcp_discover
    ch57xnet_dhcp.o(i.dhcp_start) refers to ch57xnet_dhcp.o(i.dhcp_stop) for dhcp_stop
    ch57xnet_dhcp.o(i.dhcp_start) refers to mem.o(i.mem_malloc) for mem_malloc
    ch57xnet_dhcp.o(i.dhcp_start) refers to mem.o(i.mem_free) for mem_free
    ch57xnet_dhcp.o(i.dhcp_start) refers to ip_addr.o(.constdata) for ip_addr_any
    ch57xnet_dhcp.o(i.dhcp_start) refers to ch57xnet_dhcp.o(i.dhcp_recv) for dhcp_recv
    ch57xnet_dhcp.o(i.dhcp_stop) refers to udp.o(i.udp_remove) for udp_remove
    ch57xnet_dhcp.o(i.dhcp_stop) refers to mem.o(i.mem_free) for mem_free
    ch57xnet_dhcp.o(i.dhcp_timeout) refers to ch57xnet_dhcp.o(i.dhcp_reboot) for dhcp_reboot
    ch57xnet_dhcp.o(i.dhcp_timeout) refers to ch57xnet_dhcp.o(i.dhcp_discover) for dhcp_discover
    ch57xnet_dhcp.o(i.dhcp_timeout) refers to ch57xnet_dhcp.o(i.dhcp_select) for dhcp_select
    ch57xnet_dhcp.o(i.dhcp_timeout) refers to ch57xnet_dhcp.o(i.dhcp_release) for dhcp_release
    ch57xnet_dhcp.o(i.dhcp_timeout) refers to ch57xnet_dhcp.o(i.dhcp_check) for dhcp_check
    ch57xnet_dhcp.o(i.dhcp_timeout) refers to ch57xnet_dhcp.o(i.dhcp_bind) for dhcp_bind
    ch57xnet_dhcp.o(i.dhcp_timeout) refers to ch57xnet_dhcp.o(i.dhcp_renew) for dhcp_renew
    ch57xnet_dhcp.o(i.dhcp_timeout) refers to ch57xnet_dhcp.o(i.dhcp_rebind) for dhcp_rebind
    ch57xnet_dhcp.o(i.dhcp_unfold_reply) refers to ch57xnet_dhcp.o(i.dhcp_free_reply) for dhcp_free_reply
    ch57xnet_dhcp.o(i.dhcp_unfold_reply) refers to mem.o(i.mem_malloc) for mem_malloc
    ch57xnet_dhcp.o(i.dhcp_unfold_reply) refers to pbuf.o(i.pbuf_copy_partial) for pbuf_copy_partial
    ch57xnet_dhcp.o(i.dhcp_unfold_reply) refers to mem.o(i.mem_free) for mem_free
    ch57xsock.o(i.CH57xEtherNetIsr) refers to ipcheck.o(i.IPCheckParaInit) for IPCheckParaInit
    ch57xsock.o(i.CH57xEtherNetIsr) refers to ch57xsock.o(.bss) for .bss
    ch57xsock.o(i.CH57xFileCorrectTCBPcb) refers to net_init.o(.bss) for SocketInf
    ch57xsock.o(i.CH57xFileCorrectTCBPcb) refers to ch57xsock.o(.data) for .data
    ch57xsock.o(i.CH57xIPClose) refers to netif.o(i.netif_remove) for netif_remove
    ch57xsock.o(i.CH57xIPClose) refers to ethernetif.o(.bss) for CH57xNetIf
    ch57xsock.o(i.CH57xIPSetSocketRecvInit) refers to ch57xsock.o(i.CH57xScokedIntHandle) for CH57xScokedIntHandle
    ch57xsock.o(i.CH57xIPSetSocketRecvInit) refers to net_init.o(.bss) for SocketInf
    ch57xsock.o(i.CH57xIPSetSocketRecvInit) refers to ch57xsock.o(.data) for .data
    ch57xsock.o(i.CH57xNET_Aton) refers to inet.o(i.inet_aton) for inet_aton
    ch57xsock.o(i.CH57xNET_ConfigKeepLive) refers to ch57xsock.o(.bss) for .bss
    ch57xsock.o(i.CH57xNET_ConfigLIB) refers to ch57xsock.o(.bss) for .bss
    ch57xsock.o(i.CH57xNET_ETHIsr) refers to eth.o(i.ETH_IRQ_Deal) for ETH_IRQ_Deal
    ch57xsock.o(i.CH57xNET_GetGlobalInt) refers to ch57xsock.o(i.CH57xNET_QueryGlobalInt) for CH57xNET_QueryGlobalInt
    ch57xsock.o(i.CH57xNET_GetGlobalInt) refers to ch57xsock.o(.bss) for .bss
    ch57xsock.o(i.CH57xNET_GetPHYStatus) refers to ch57xsock.o(.bss) for .bss
    ch57xsock.o(i.CH57xNET_GetSocketInt) refers to ch57xsock.o(.data) for .data
    ch57xsock.o(i.CH57xNET_GetSocketInt) refers to net_init.o(.bss) for SocketInf
    ch57xsock.o(i.CH57xNET_Init) refers to memseta.o(.text) for __aeabi_memclr4
    ch57xsock.o(i.CH57xNET_Init) refers to memcpya.o(.text) for __aeabi_memcpy
    ch57xsock.o(i.CH57xNET_Init) refers to ch57xsock.o(i.CH57xSocketInit) for CH57xSocketInit
    ch57xsock.o(i.CH57xNET_Init) refers to hal.o(i.InitCH57xMAC) for InitCH57xMAC
    ch57xsock.o(i.CH57xNET_Init) refers to ethernetif.o(i.SetupNetif) for SetupNetif
    ch57xsock.o(i.CH57xNET_Init) refers to net_init.o(.bss) for CH57xMACRxDesBuf
    ch57xsock.o(i.CH57xNET_Init) refers to ch57xsock.o(.bss) for .bss
    ch57xsock.o(i.CH57xNET_Init) refers to ethernetif.o(.bss) for DHCPCtrl
    ch57xsock.o(i.CH57xNET_Init) refers to ch57xsock.o(.data) for .data
    ch57xsock.o(i.CH57xNET_MainTask) refers to tcp.o(i.RemoveTimeWaiTCP) for RemoveTimeWaiTCP
    ch57xsock.o(i.CH57xNET_MainTask) refers to ethernetif.o(i.QuaryEthRxDma) for QuaryEthRxDma
    ch57xsock.o(i.CH57xNET_MainTask) refers to ethernetif.o(i.ethernetif_input) for ethernetif_input
    ch57xsock.o(i.CH57xNET_MainTask) refers to ethernetif.o(i.LwIPPeriodicHandle) for LwIPPeriodicHandle
    ch57xsock.o(i.CH57xNET_MainTask) refers to ch57xsock.o(i.CH57xIPSetSocketRecvInit) for CH57xIPSetSocketRecvInit
    ch57xsock.o(i.CH57xNET_MainTask) refers to ch57xsock.o(.bss) for .bss
    ch57xsock.o(i.CH57xNET_MainTask) refers to ethernetif.o(.bss) for CH57xNetIf
    ch57xsock.o(i.CH57xNET_ModifyRecvBuf) refers to ch57xsock.o(i.tcp_recved_socket) for tcp_recved_socket
    ch57xsock.o(i.CH57xNET_ModifyRecvBuf) refers to ch57xsock.o(.data) for .data
    ch57xsock.o(i.CH57xNET_ModifyRecvBuf) refers to net_init.o(.bss) for SocketInf
    ch57xsock.o(i.CH57xNET_Ntoa) refers to memcpya.o(.text) for __aeabi_memcpy
    ch57xsock.o(i.CH57xNET_Ntoa) refers to inet.o(i.inet_ntoa) for inet_ntoa
    ch57xsock.o(i.CH57xNET_OpenMac) refers to hal.o(i.InitCH57xMAC) for InitCH57xMAC
    ch57xsock.o(i.CH57xNET_OpenMac) refers to ethernetif.o(i.low_level_init) for low_level_init
    ch57xsock.o(i.CH57xNET_OpenMac) refers to ethernetif.o(.bss) for CH57xNetIf
    ch57xsock.o(i.CH57xNET_QueryGlobalInt) refers to ch57xsock.o(.data) for .data
    ch57xsock.o(i.CH57xNET_QueryGlobalInt) refers to ch57xsock.o(.bss) for .bss
    ch57xsock.o(i.CH57xNET_QueryGlobalInt) refers to net_init.o(.bss) for SocketInf
    ch57xsock.o(i.CH57xNET_QueryUnack) refers to memseta.o(.text) for __aeabi_memclr4
    ch57xsock.o(i.CH57xNET_RetrySendUnack) refers to tcp_out.o(i.tcp_rexmit_rto) for tcp_rexmit_rto
    ch57xsock.o(i.CH57xNET_RetrySendUnack) refers to net_init.o(.bss) for SocketInf
    ch57xsock.o(i.CH57xNET_SetSocketTTL) refers to net_init.o(.bss) for SocketInf
    ch57xsock.o(i.CH57xNET_SocketClose) refers to ch57xsock.o(i.CloseUpdConnect) for CloseUpdConnect
    ch57xsock.o(i.CH57xNET_SocketClose) refers to ch57xsock.o(i.CloseTcpPCB) for CloseTcpPCB
    ch57xsock.o(i.CH57xNET_SocketClose) refers to ch57xsock.o(i.CloseIPRAWConnect) for CloseIPRAWConnect
    ch57xsock.o(i.CH57xNET_SocketClose) refers to ch57xsock.o(i.ErrorEncode) for ErrorEncode
    ch57xsock.o(i.CH57xNET_SocketClose) refers to net_init.o(.bss) for SocketInf
    ch57xsock.o(i.CH57xNET_SocketClose) refers to ch57xsock.o(.data) for .data
    ch57xsock.o(i.CH57xNET_SocketConnect) refers to tcp.o(i.tcp_connect) for tcp_connect
    ch57xsock.o(i.CH57xNET_SocketConnect) refers to tcp.o(i.tcp_close) for tcp_close
    ch57xsock.o(i.CH57xNET_SocketConnect) refers to ch57xsock.o(i.ErrorEncode) for ErrorEncode
    ch57xsock.o(i.CH57xNET_SocketConnect) refers to net_init.o(.bss) for SocketInf
    ch57xsock.o(i.CH57xNET_SocketConnect) refers to ch57xsock.o(i.LwipTcpConnectedCallBack) for LwipTcpConnectedCallBack
    ch57xsock.o(i.CH57xNET_SocketCreat) refers to raw.o(i.raw_new) for raw_new
    ch57xsock.o(i.CH57xNET_SocketCreat) refers to raw.o(i.raw_bind) for raw_bind
    ch57xsock.o(i.CH57xNET_SocketCreat) refers to raw.o(i.raw_connect) for raw_connect
    ch57xsock.o(i.CH57xNET_SocketCreat) refers to raw.o(i.raw_recv) for raw_recv
    ch57xsock.o(i.CH57xNET_SocketCreat) refers to udp.o(i.udp_new) for udp_new
    ch57xsock.o(i.CH57xNET_SocketCreat) refers to inet.o(i.ntohl) for ntohl
    ch57xsock.o(i.CH57xNET_SocketCreat) refers to ip_addr.o(i.ip_addr_isbroadcast) for ip_addr_isbroadcast
    ch57xsock.o(i.CH57xNET_SocketCreat) refers to udp.o(i.udp_bind) for udp_bind
    ch57xsock.o(i.CH57xNET_SocketCreat) refers to udp.o(i.udp_connect) for udp_connect
    ch57xsock.o(i.CH57xNET_SocketCreat) refers to ch57xsock.o(i.ErrorEncode) for ErrorEncode
    ch57xsock.o(i.CH57xNET_SocketCreat) refers to udp.o(i.udp_recv) for udp_recv
    ch57xsock.o(i.CH57xNET_SocketCreat) refers to etharp.o(i.etharp_request) for etharp_request
    ch57xsock.o(i.CH57xNET_SocketCreat) refers to ch57xsock.o(i.CH57xSocketInit) for CH57xSocketInit
    ch57xsock.o(i.CH57xNET_SocketCreat) refers to tcp.o(i.tcp_new) for tcp_new
    ch57xsock.o(i.CH57xNET_SocketCreat) refers to tcp.o(i.tcp_bind) for tcp_bind
    ch57xsock.o(i.CH57xNET_SocketCreat) refers to tcp.o(i.tcp_close) for tcp_close
    ch57xsock.o(i.CH57xNET_SocketCreat) refers to tcp.o(i.tcp_arg) for tcp_arg
    ch57xsock.o(i.CH57xNET_SocketCreat) refers to tcp.o(i.tcp_err) for tcp_err
    ch57xsock.o(i.CH57xNET_SocketCreat) refers to ch57xsock.o(.data) for .data
    ch57xsock.o(i.CH57xNET_SocketCreat) refers to net_init.o(.bss) for SocketInf
    ch57xsock.o(i.CH57xNET_SocketCreat) refers to ch57xsock.o(.bss) for .bss
    ch57xsock.o(i.CH57xNET_SocketCreat) refers to ch57xsock.o(i.SocketIPRAWReceive) for SocketIPRAWReceive
    ch57xsock.o(i.CH57xNET_SocketCreat) refers to ethernetif.o(.bss) for CH57xNetIf
    ch57xsock.o(i.CH57xNET_SocketCreat) refers to ip_addr.o(.constdata) for ip_addr_any
    ch57xsock.o(i.CH57xNET_SocketCreat) refers to ch57xsock.o(i.SocketUdpReceive) for SocketUdpReceive
    ch57xsock.o(i.CH57xNET_SocketCreat) refers to ch57xsock.o(i.CH57xTCPError) for CH57xTCPError
    ch57xsock.o(i.CH57xNET_SocketListen) refers to tcp.o(i.tcp_arg) for tcp_arg
    ch57xsock.o(i.CH57xNET_SocketListen) refers to tcp.o(i.tcp_listen_with_backlog) for tcp_listen_with_backlog
    ch57xsock.o(i.CH57xNET_SocketListen) refers to tcp.o(i.tcp_accept) for tcp_accept
    ch57xsock.o(i.CH57xNET_SocketListen) refers to net_init.o(.bss) for SocketInf
    ch57xsock.o(i.CH57xNET_SocketListen) refers to ch57xsock.o(i.CH57xTCPServerAccept) for CH57xTCPServerAccept
    ch57xsock.o(i.CH57xNET_SocketRecv) refers to memcpya.o(.text) for __aeabi_memcpy
    ch57xsock.o(i.CH57xNET_SocketRecv) refers to ch57xsock.o(i.MemShortCopy) for MemShortCopy
    ch57xsock.o(i.CH57xNET_SocketRecv) refers to ch57xsock.o(i.tcp_recved_socket) for tcp_recved_socket
    ch57xsock.o(i.CH57xNET_SocketRecv) refers to net_init.o(.bss) for SocketInf
    ch57xsock.o(i.CH57xNET_SocketRecv) refers to ch57xsock.o(.bss) for .bss
    ch57xsock.o(i.CH57xNET_SocketRecvLen) refers to net_init.o(.bss) for SocketInf
    ch57xsock.o(i.CH57xNET_SocketSend) refers to ch57xsock.o(i.SocketIPRawSend) for SocketIPRawSend
    ch57xsock.o(i.CH57xNET_SocketSend) refers to ch57xsock.o(i.SocketUdpSend) for SocketUdpSend
    ch57xsock.o(i.CH57xNET_SocketSend) refers to ch57xsock.o(i.SocketTcpSend) for SocketTcpSend
    ch57xsock.o(i.CH57xNET_SocketSend) refers to net_init.o(.bss) for SocketInf
    ch57xsock.o(i.CH57xNET_SocketSetKeepLive) refers to net_init.o(.bss) for SocketInf
    ch57xsock.o(i.CH57xNET_SocketUdpSendTo) refers to pbuf.o(i.pbuf_alloc) for pbuf_alloc
    ch57xsock.o(i.CH57xNET_SocketUdpSendTo) refers to memcpya.o(.text) for __aeabi_memcpy
    ch57xsock.o(i.CH57xNET_SocketUdpSendTo) refers to udp.o(i.udp_sendto) for udp_sendto
    ch57xsock.o(i.CH57xNET_SocketUdpSendTo) refers to pbuf.o(i.pbuf_free) for pbuf_free
    ch57xsock.o(i.CH57xNET_SocketUdpSendTo) refers to ch57xsock.o(i.CH57xScokedIntHandle) for CH57xScokedIntHandle
    ch57xsock.o(i.CH57xNET_SocketUdpSendTo) refers to ch57xsock.o(i.ErrorEncode) for ErrorEncode
    ch57xsock.o(i.CH57xNET_SocketUdpSendTo) refers to net_init.o(.bss) for SocketInf
    ch57xsock.o(i.CH57xNET_SocketUdpSendTo) refers to ch57xsock.o(.bss) for .bss
    ch57xsock.o(i.CH57xNET_TimeIsr) refers to ch57xsock.o(i.CH57xNET_GetPHYStatus) for CH57xNET_GetPHYStatus
    ch57xsock.o(i.CH57xNET_TimeIsr) refers to ch57xsock.o(i.phy_change) for phy_change
    ch57xsock.o(i.CH57xNET_TimeIsr) refers to ethernetif.o(.data) for LocalTime
    ch57xsock.o(i.CH57xNET_TimeIsr) refers to ch57xsock.o(.data) for .data
    ch57xsock.o(i.CH57xScokedIntHandle) refers to tcp.o(i.tcp_close) for tcp_close
    ch57xsock.o(i.CH57xSocketInit) refers to memseta.o(.text) for __aeabi_memclr4
    ch57xsock.o(i.CH57xSocketInit) refers to memcpya.o(.text) for __aeabi_memcpy4
    ch57xsock.o(i.CH57xSocketInit) refers to net_init.o(.bss) for SocketInf
    ch57xsock.o(i.CH57xSocketTCPReceive) refers to memcpya.o(.text) for __aeabi_memcpy
    ch57xsock.o(i.CH57xSocketTCPReceive) refers to pbuf.o(i.pbuf_free) for pbuf_free
    ch57xsock.o(i.CH57xSocketTCPReceive) refers to ch57xsock.o(i.tcp_recved_CH57x) for tcp_recved_CH57x
    ch57xsock.o(i.CH57xSocketTCPReceive) refers to tcp.o(i.tcp_close) for tcp_close
    ch57xsock.o(i.CH57xSocketTCPReceive) refers to ch57xsock.o(.data) for .data
    ch57xsock.o(i.CH57xSocketTCPReceive) refers to ch57xsock.o(.bss) for .bss
    ch57xsock.o(i.CH57xSocketTcpDiscon) refers to tcp.o(i.tcp_close) for tcp_close
    ch57xsock.o(i.CH57xSocketTcpDiscon) refers to net_init.o(.bss) for SocketInf
    ch57xsock.o(i.CH57xTCPServerAccept) refers to tcp.o(i.tcp_arg) for tcp_arg
    ch57xsock.o(i.CH57xTCPServerAccept) refers to tcp.o(i.tcp_err) for tcp_err
    ch57xsock.o(i.CH57xTCPServerAccept) refers to tcp.o(i.tcp_recv) for tcp_recv
    ch57xsock.o(i.CH57xTCPServerAccept) refers to tcp.o(i.tcp_sent) for tcp_sent
    ch57xsock.o(i.CH57xTCPServerAccept) refers to tcp.o(i.tcp_poll) for tcp_poll
    ch57xsock.o(i.CH57xTCPServerAccept) refers to ch57xsock.o(i.CH57xScokedIntHandle) for CH57xScokedIntHandle
    ch57xsock.o(i.CH57xTCPServerAccept) refers to ch57xsock.o(.data) for .data
    ch57xsock.o(i.CH57xTCPServerAccept) refers to net_init.o(.bss) for SocketInf
    ch57xsock.o(i.CH57xTCPServerAccept) refers to ch57xsock.o(i.CH57xTCPError) for CH57xTCPError
    ch57xsock.o(i.CH57xTCPServerAccept) refers to ch57xsock.o(i.CH57xSocketTCPReceive) for CH57xSocketTCPReceive
    ch57xsock.o(i.CH57xTCPServerAccept) refers to ch57xsock.o(i.LwipTCPSendCallBack) for LwipTCPSendCallBack
    ch57xsock.o(i.CH57xTCPServerAccept) refers to ch57xsock.o(i.LwipTCPPollCallBack) for LwipTCPPollCallBack
    ch57xsock.o(i.CloseIPRAWConnect) refers to raw.o(i.raw_remove) for raw_remove
    ch57xsock.o(i.CloseIPRAWConnect) refers to net_init.o(.bss) for SocketInf
    ch57xsock.o(i.CloseTcpPCB) refers to tcp.o(i.tcp_close) for tcp_close
    ch57xsock.o(i.CloseTcpPCB) refers to tcp.o(i.tcp_abandon) for tcp_abandon
    ch57xsock.o(i.CloseTcpPCB) refers to ch57xsock.o(i.ErrorEncode) for ErrorEncode
    ch57xsock.o(i.CloseTcpPCB) refers to net_init.o(.bss) for SocketInf
    ch57xsock.o(i.CloseUpdConnect) refers to udp.o(i.udp_remove) for udp_remove
    ch57xsock.o(i.CloseUpdConnect) refers to net_init.o(.bss) for SocketInf
    ch57xsock.o(i.ErrorEncode) refers to ch57xsock.o(.constdata) for .constdata
    ch57xsock.o(i.LwipArpCheck) refers to ch57xsock.o(.bss) for .bss
    ch57xsock.o(i.LwipRemoveTcpPcb) refers to ch57xsock.o(i.CH57xFileCorrectTCBPcb) for CH57xFileCorrectTCBPcb
    ch57xsock.o(i.LwipRemoveTcpPcb) refers to memseta.o(.text) for __aeabi_memclr4
    ch57xsock.o(i.LwipRemoveTcpPcb) refers to ch57xsock.o(i.CH57xScokedIntHandle) for CH57xScokedIntHandle
    ch57xsock.o(i.LwipRemoveTcpPcb) refers to net_init.o(.bss) for SocketInf
    ch57xsock.o(i.LwipRemoveTcpPcb) refers to ch57xsock.o(.data) for .data
    ch57xsock.o(i.LwipTcpConnectedCallBack) refers to tcp.o(i.tcp_recv) for tcp_recv
    ch57xsock.o(i.LwipTcpConnectedCallBack) refers to tcp.o(i.tcp_sent) for tcp_sent
    ch57xsock.o(i.LwipTcpConnectedCallBack) refers to tcp.o(i.tcp_poll) for tcp_poll
    ch57xsock.o(i.LwipTcpConnectedCallBack) refers to ch57xsock.o(i.CH57xScokedIntHandle) for CH57xScokedIntHandle
    ch57xsock.o(i.LwipTcpConnectedCallBack) refers to ch57xsock.o(i.CH57xSocketTCPReceive) for CH57xSocketTCPReceive
    ch57xsock.o(i.LwipTcpConnectedCallBack) refers to ch57xsock.o(i.LwipTCPSendCallBack) for LwipTCPSendCallBack
    ch57xsock.o(i.LwipTcpConnectedCallBack) refers to ch57xsock.o(i.LwipTCPPollCallBack) for LwipTCPPollCallBack
    ch57xsock.o(i.LwipUnreachPort) refers to ch57xsock.o(.bss) for .bss
    ch57xsock.o(i.QueryPingEnable) refers to ch57xsock.o(.data) for .data
    ch57xsock.o(i.SocketIPRAWReceive) refers to inet.o(i.ntohs) for ntohs
    ch57xsock.o(i.SocketIPRAWReceive) refers to pbuf.o(i.pbuf_header) for pbuf_header
    ch57xsock.o(i.SocketIPRAWReceive) refers to pbuf.o(i.pbuf_free) for pbuf_free
    ch57xsock.o(i.SocketIPRawSend) refers to pbuf.o(i.pbuf_alloc) for pbuf_alloc
    ch57xsock.o(i.SocketIPRawSend) refers to memcpya.o(.text) for __aeabi_memcpy
    ch57xsock.o(i.SocketIPRawSend) refers to raw.o(i.raw_send) for raw_send
    ch57xsock.o(i.SocketIPRawSend) refers to pbuf.o(i.pbuf_free) for pbuf_free
    ch57xsock.o(i.SocketIPRawSend) refers to ch57xsock.o(i.CH57xScokedIntHandle) for CH57xScokedIntHandle
    ch57xsock.o(i.SocketIPRawSend) refers to ch57xsock.o(i.ErrorEncode) for ErrorEncode
    ch57xsock.o(i.SocketIPRawSend) refers to net_init.o(.bss) for SocketInf
    ch57xsock.o(i.SocketIPRawSend) refers to ch57xsock.o(.bss) for .bss
    ch57xsock.o(i.SocketTcpSend) refers to ch57xsock.o(i.CH57xNET_MainTask) for CH57xNET_MainTask
    ch57xsock.o(i.SocketTcpSend) refers to tcp_out.o(i.tcp_output) for tcp_output
    ch57xsock.o(i.SocketTcpSend) refers to tcp_out.o(i.tcp_write) for tcp_write
    ch57xsock.o(i.SocketTcpSend) refers to ch57xsock.o(i.ErrorEncode) for ErrorEncode
    ch57xsock.o(i.SocketTcpSend) refers to net_init.o(.bss) for SocketInf
    ch57xsock.o(i.SocketTcpSend) refers to ch57xsock.o(.bss) for .bss
    ch57xsock.o(i.SocketUdpReceive) refers to pbuf.o(i.pbuf_free) for pbuf_free
    ch57xsock.o(i.SocketUdpReceive) refers to uread4.o(.text) for __aeabi_uread4
    ch57xsock.o(i.SocketUdpSend) refers to pbuf.o(i.pbuf_alloc) for pbuf_alloc
    ch57xsock.o(i.SocketUdpSend) refers to memcpya.o(.text) for __aeabi_memcpy
    ch57xsock.o(i.SocketUdpSend) refers to udp.o(i.udp_send) for udp_send
    ch57xsock.o(i.SocketUdpSend) refers to pbuf.o(i.pbuf_free) for pbuf_free
    ch57xsock.o(i.SocketUdpSend) refers to ch57xsock.o(i.ErrorEncode) for ErrorEncode
    ch57xsock.o(i.SocketUdpSend) refers to net_init.o(.bss) for SocketInf
    ch57xsock.o(i.SocketUdpSend) refers to ch57xsock.o(.bss) for .bss
    ch57xsock.o(i.tcp_recved_CH57x) refers to tcp.o(i.tcp_update_rcv_ann_wnd) for tcp_update_rcv_ann_wnd
    ch57xsock.o(i.tcp_recved_socket) refers to tcp.o(i.tcp_update_rcv_ann_wnd) for tcp_update_rcv_ann_wnd
    ch57xsock.o(i.tcp_recved_socket) refers to tcp_out.o(i.tcp_output) for tcp_output
    eth.o(i.CH57xNET_GetMACAddr) refers to net_init.o(.data) for MACAddr
    eth.o(i.ETHInit) refers to net_init.o(.data) for MACAddr
    eth.o(i.ETHInit) refers to ethernetif.o(.bss) for RxCtrl
    eth.o(i.ETHRec) refers to ethernetif.o(.bss) for RxCtrl
    eth.o(i.ETHSend) refers to ethernetif.o(.bss) for TXCtrl
    eth.o(i.ETHSend) refers to eth.o(.data) for .data
    eth.o(i.ETH_IRQ_Deal) refers to ethernetif.o(i.CH57xMACRxSuccHandle) for CH57xMACRxSuccHandle
    eth.o(i.ETH_IRQ_Deal) refers to eth.o(i.ReadPHYReg) for ReadPHYReg
    eth.o(i.ETH_IRQ_Deal) refers to ipcheck.o(i.IPCheckParaInit) for IPCheckParaInit
    eth.o(i.ETH_IRQ_Deal) refers to eth.o(.data) for .data
    eth.o(i.ETH_IRQ_Deal) refers to ch57xsock.o(.bss) for CH57xInf
    eth.o(i.ETH_IRQ_Deal) refers to net_init.o(.data) for CH57xNET_LEDCONN
    eth.o(i.ETH_IRQ_Rec_Deal) refers to ethernetif.o(i.CH57xMACRxSuccHandle) for CH57xMACRxSuccHandle
    eth.o(i.ETH_IRQ_Send_Deal) refers to eth.o(.data) for .data
    mem.o(i.mem_calloc) refers to mem.o(i.mem_malloc) for mem_malloc
    mem.o(i.mem_calloc) refers to memseta.o(.text) for __aeabi_memclr
    mem.o(i.mem_free) refers to mem.o(i.plug_holes) for plug_holes
    mem.o(i.mem_free) refers to mem.o(.data) for .data
    mem.o(i.mem_init) refers to mem.o(.data) for .data
    mem.o(i.mem_init) refers to ch57xsock.o(.bss) for CH57xCfg
    mem.o(i.mem_malloc) refers to ch57xsock.o(.bss) for CH57xCfg
    mem.o(i.mem_malloc) refers to mem.o(.data) for .data
    mem.o(i.mem_realloc) refers to ch57xsock.o(.bss) for CH57xCfg
    mem.o(i.mem_realloc) refers to mem.o(.data) for .data
    mem.o(i.plug_holes) refers to mem.o(.data) for .data
    mem.o(.data) refers to net_init.o(.bss) for Mem_Heap_Memory
    netif.o(i.netif_add) refers to netif.o(i.netif_set_addr) for netif_set_addr
    netif.o(i.netif_add) refers to netif.o(.data) for .data
    netif.o(i.netif_find) refers to netif.o(.data) for .data
    netif.o(i.netif_remove) refers to netif.o(.data) for .data
    netif.o(i.netif_set_addr) refers to netif.o(i.netif_set_ipaddr) for netif_set_ipaddr
    netif.o(i.netif_set_addr) refers to netif.o(i.netif_set_netmask) for netif_set_netmask
    netif.o(i.netif_set_addr) refers to netif.o(i.netif_set_gw) for netif_set_gw
    netif.o(i.netif_set_default) refers to netif.o(.data) for .data
    netif.o(i.netif_set_gw) refers to uread4.o(.text) for __aeabi_uread4
    netif.o(i.netif_set_ipaddr) refers to uread4.o(.text) for __aeabi_uread4
    netif.o(i.netif_set_ipaddr) refers to tcp.o(i.tcp_abandon) for tcp_abandon
    netif.o(i.netif_set_ipaddr) refers to tcp.o(.data) for tcp_active_pcbs
    netif.o(i.netif_set_netmask) refers to uread4.o(.text) for __aeabi_uread4
    netif.o(i.netif_set_up) refers to etharp.o(i.etharp_request) for etharp_request
    pbuf.o(i.pbuf_alloc) refers to memp.o(i.memp_malloc) for memp_malloc
    pbuf.o(i.pbuf_alloc) refers to pbuf.o(i.pbuf_free) for pbuf_free
    pbuf.o(i.pbuf_alloc) refers to mem.o(i.mem_malloc) for mem_malloc
    pbuf.o(i.pbuf_alloc) refers to ch57xsock.o(.bss) for CH57xCfg
    pbuf.o(i.pbuf_chain) refers to pbuf.o(i.pbuf_cat) for pbuf_cat
    pbuf.o(i.pbuf_chain) refers to pbuf.o(i.pbuf_ref) for pbuf_ref
    pbuf.o(i.pbuf_coalesce) refers to pbuf.o(i.pbuf_alloc) for pbuf_alloc
    pbuf.o(i.pbuf_coalesce) refers to pbuf.o(i.pbuf_copy) for pbuf_copy
    pbuf.o(i.pbuf_coalesce) refers to pbuf.o(i.pbuf_free) for pbuf_free
    pbuf.o(i.pbuf_copy) refers to memcpya.o(.text) for __aeabi_memcpy
    pbuf.o(i.pbuf_copy_partial) refers to memcpya.o(.text) for __aeabi_memcpy
    pbuf.o(i.pbuf_dechain) refers to pbuf.o(i.pbuf_free) for pbuf_free
    pbuf.o(i.pbuf_free) refers to mem.o(i.mem_free) for mem_free
    pbuf.o(i.pbuf_free) refers to memp.o(i.memp_free) for memp_free
    pbuf.o(i.pbuf_realloc) refers to mem.o(i.mem_realloc) for mem_realloc
    pbuf.o(i.pbuf_realloc) refers to pbuf.o(i.pbuf_free) for pbuf_free
    pbuf.o(i.pbuf_take) refers to memcpya.o(.text) for __aeabi_memcpy
    tcp.o(i.RemoveTimeWaiTCP) refers to ch57xsock.o(i.LwipRemoveTcpPcb) for LwipRemoveTcpPcb
    tcp.o(i.RemoveTimeWaiTCP) refers to tcp.o(i.tcp_pcb_purge) for tcp_pcb_purge
    tcp.o(i.RemoveTimeWaiTCP) refers to memp.o(i.memp_free) for memp_free
    tcp.o(i.RemoveTimeWaiTCP) refers to tcp.o(.data) for .data
    tcp.o(i.tcp_abandon) refers to ch57xsock.o(i.LwipRemoveTcpPcb) for LwipRemoveTcpPcb
    tcp.o(i.tcp_abandon) refers to tcp.o(i.tcp_pcb_remove) for tcp_pcb_remove
    tcp.o(i.tcp_abandon) refers to tcp.o(i.tcp_segs_free) for tcp_segs_free
    tcp.o(i.tcp_abandon) refers to memp.o(i.memp_free) for memp_free
    tcp.o(i.tcp_abandon) refers to tcp_out.o(i.tcp_rst) for tcp_rst
    tcp.o(i.tcp_abandon) refers to tcp.o(.data) for .data
    tcp.o(i.tcp_alloc) refers to memp.o(i.memp_malloc) for memp_malloc
    tcp.o(i.tcp_alloc) refers to tcp.o(i.tcp_abandon) for tcp_abandon
    tcp.o(i.tcp_alloc) refers to memseta.o(.text) for __aeabi_memclr4
    tcp.o(i.tcp_alloc) refers to tcp.o(i.tcp_next_iss) for tcp_next_iss
    tcp.o(i.tcp_alloc) refers to tcp.o(.data) for .data
    tcp.o(i.tcp_alloc) refers to ch57xsock.o(.bss) for CH57xCfg
    tcp.o(i.tcp_alloc) refers to tcp.o(i.tcp_recv_null) for tcp_recv_null
    tcp.o(i.tcp_bind) refers to tcp.o(i.tcp_new_port) for tcp_new_port
    tcp.o(i.tcp_bind) refers to uread4.o(.text) for __aeabi_uread4
    tcp.o(i.tcp_bind) refers to memcpya.o(.text) for __aeabi_memcpy
    tcp.o(i.tcp_bind) refers to tcp.o(.data) for .data
    tcp.o(i.tcp_close) refers to tcp.o(i.__ARM_common_switch8) for __ARM_common_switch8
    tcp.o(i.tcp_close) refers to ch57xsock.o(i.LwipRemoveTcpPcb) for LwipRemoveTcpPcb
    tcp.o(i.tcp_close) refers to tcp.o(i.tcp_pcb_remove) for tcp_pcb_remove
    tcp.o(i.tcp_close) refers to memp.o(i.memp_free) for memp_free
    tcp.o(i.tcp_close) refers to tcp_out.o(i.tcp_send_ctrl) for tcp_send_ctrl
    tcp.o(i.tcp_close) refers to tcp_out.o(i.tcp_output) for tcp_output
    tcp.o(i.tcp_close) refers to tcp.o(.data) for .data
    tcp.o(i.tcp_connect) refers to memcpya.o(.text) for __aeabi_memcpy
    tcp.o(i.tcp_connect) refers to tcp.o(i.tcp_new_port) for tcp_new_port
    tcp.o(i.tcp_connect) refers to tcp.o(i.tcp_next_iss) for tcp_next_iss
    tcp.o(i.tcp_connect) refers to tcp.o(i.tcp_eff_send_mss) for tcp_eff_send_mss
    tcp.o(i.tcp_connect) refers to tcp_out.o(i.tcp_enqueue) for tcp_enqueue
    tcp.o(i.tcp_connect) refers to tcp_out.o(i.tcp_output) for tcp_output
    tcp.o(i.tcp_connect) refers to ch57xsock.o(.bss) for CH57xCfg
    tcp.o(i.tcp_connect) refers to tcp.o(.data) for .data
    tcp.o(i.tcp_debug_state_str) refers to tcp.o(.data) for .data
    tcp.o(i.tcp_eff_send_mss) refers to ip.o(i.ip_route) for ip_route
    tcp.o(i.tcp_fasttmr) refers to tcp.o(i.tcp_recv_null) for tcp_recv_null
    tcp.o(i.tcp_fasttmr) refers to tcp_out.o(i.tcp_output) for tcp_output
    tcp.o(i.tcp_fasttmr) refers to tcp.o(.data) for .data
    tcp.o(i.tcp_listen_with_backlog) refers to memp.o(i.memp_malloc) for memp_malloc
    tcp.o(i.tcp_listen_with_backlog) refers to memp.o(i.memp_free) for memp_free
    tcp.o(i.tcp_listen_with_backlog) refers to tcp.o(.data) for .data
    tcp.o(i.tcp_listen_with_backlog) refers to tcp.o(i.tcp_accept_null) for tcp_accept_null
    tcp.o(i.tcp_new) refers to tcp.o(i.tcp_alloc) for tcp_alloc
    tcp.o(i.tcp_new_port) refers to tcp.o(.data) for .data
    tcp.o(i.tcp_next_iss) refers to tcp.o(.data) for .data
    tcp.o(i.tcp_pcb_purge) refers to pbuf.o(i.pbuf_free) for pbuf_free
    tcp.o(i.tcp_pcb_purge) refers to tcp.o(i.tcp_segs_free) for tcp_segs_free
    tcp.o(i.tcp_pcb_remove) refers to tcp.o(i.tcp_pcb_purge) for tcp_pcb_purge
    tcp.o(i.tcp_pcb_remove) refers to tcp_out.o(i.tcp_output) for tcp_output
    tcp.o(i.tcp_pcb_remove) refers to tcp.o(.data) for .data
    tcp.o(i.tcp_recv_null) refers to tcp.o(i.tcp_recved) for tcp_recved
    tcp.o(i.tcp_recv_null) refers to pbuf.o(i.pbuf_free) for pbuf_free
    tcp.o(i.tcp_recv_null) refers to tcp.o(i.tcp_close) for tcp_close
    tcp.o(i.tcp_recved) refers to tcp.o(i.tcp_update_rcv_ann_wnd) for tcp_update_rcv_ann_wnd
    tcp.o(i.tcp_recved) refers to tcp_out.o(i.tcp_output) for tcp_output
    tcp.o(i.tcp_recved) refers to ch57xsock.o(.bss) for CH57xCfg
    tcp.o(i.tcp_seg_copy) refers to memp.o(i.memp_malloc) for memp_malloc
    tcp.o(i.tcp_seg_copy) refers to memcpya.o(.text) for __aeabi_memcpy4
    tcp.o(i.tcp_seg_copy) refers to pbuf.o(i.pbuf_ref) for pbuf_ref
    tcp.o(i.tcp_seg_free) refers to pbuf.o(i.pbuf_free) for pbuf_free
    tcp.o(i.tcp_seg_free) refers to memp.o(i.memp_free) for memp_free
    tcp.o(i.tcp_segs_free) refers to tcp.o(i.tcp_seg_free) for tcp_seg_free
    tcp.o(i.tcp_slowtmr) refers to tcp_out.o(i.tcp_zero_window_probe) for tcp_zero_window_probe
    tcp.o(i.tcp_slowtmr) refers to tcp_out.o(i.tcp_rexmit_rto) for tcp_rexmit_rto
    tcp.o(i.tcp_slowtmr) refers to uidiv.o(.text) for __aeabi_uidivmod
    tcp.o(i.tcp_slowtmr) refers to tcp_out.o(i.tcp_keepalive) for tcp_keepalive
    tcp.o(i.tcp_slowtmr) refers to tcp.o(i.tcp_segs_free) for tcp_segs_free
    tcp.o(i.tcp_slowtmr) refers to ch57xsock.o(i.LwipRemoveTcpPcb) for LwipRemoveTcpPcb
    tcp.o(i.tcp_slowtmr) refers to tcp.o(i.tcp_pcb_purge) for tcp_pcb_purge
    tcp.o(i.tcp_slowtmr) refers to tcp_out.o(i.tcp_rst) for tcp_rst
    tcp.o(i.tcp_slowtmr) refers to memp.o(i.memp_free) for memp_free
    tcp.o(i.tcp_slowtmr) refers to tcp_out.o(i.tcp_output) for tcp_output
    tcp.o(i.tcp_slowtmr) refers to ch57xsock.o(.bss) for CH57xInf
    tcp.o(i.tcp_slowtmr) refers to tcp.o(.data) for .data
    tcp.o(i.tcp_slowtmr) refers to tcp.o(.constdata) for .constdata
    tcp.o(i.tcp_tmr) refers to tcp.o(i.tcp_fasttmr) for tcp_fasttmr
    tcp.o(i.tcp_tmr) refers to tcp.o(i.tcp_slowtmr) for tcp_slowtmr
    tcp.o(i.tcp_tmr) refers to tcp.o(.data) for .data
    tcp.o(i.tcp_update_rcv_ann_wnd) refers to ch57xsock.o(.bss) for CH57xCfg
    tcp.o(.data) refers to tcp.o(.conststring) for .conststring
    tcp_out.o(i.tcp_enqueue) refers to uidiv.o(.text) for __aeabi_uidivmod
    tcp_out.o(i.tcp_enqueue) refers to memp.o(i.memp_malloc) for memp_malloc
    tcp_out.o(i.tcp_enqueue) refers to pbuf.o(i.pbuf_alloc) for pbuf_alloc
    tcp_out.o(i.tcp_enqueue) refers to pbuf.o(i.pbuf_clen) for pbuf_clen
    tcp_out.o(i.tcp_enqueue) refers to memcpya.o(.text) for __aeabi_memcpy
    tcp_out.o(i.tcp_enqueue) refers to pbuf.o(i.pbuf_cat) for pbuf_cat
    tcp_out.o(i.tcp_enqueue) refers to pbuf.o(i.pbuf_header) for pbuf_header
    tcp_out.o(i.tcp_enqueue) refers to pbuf.o(i.pbuf_free) for pbuf_free
    tcp_out.o(i.tcp_enqueue) refers to inet.o(i.htons) for htons
    tcp_out.o(i.tcp_enqueue) refers to inet.o(i.htonl) for htonl
    tcp_out.o(i.tcp_enqueue) refers to uwrite4.o(.text) for __aeabi_uwrite4
    tcp_out.o(i.tcp_enqueue) refers to inet.o(i.ntohs) for ntohs
    tcp_out.o(i.tcp_enqueue) refers to uread4.o(.text) for __aeabi_uread4
    tcp_out.o(i.tcp_enqueue) refers to inet.o(i.ntohl) for ntohl
    tcp_out.o(i.tcp_enqueue) refers to tcp.o(i.tcp_segs_free) for tcp_segs_free
    tcp_out.o(i.tcp_enqueue) refers to memp.o(i.memp_free) for memp_free
    tcp_out.o(i.tcp_enqueue) refers to ch57xsock.o(.bss) for CH57xCfg
    tcp_out.o(i.tcp_keepalive) refers to pbuf.o(i.pbuf_alloc) for pbuf_alloc
    tcp_out.o(i.tcp_keepalive) refers to inet.o(i.htonl) for htonl
    tcp_out.o(i.tcp_keepalive) refers to tcp_out.o(i.tcp_output_set_header) for tcp_output_set_header
    tcp_out.o(i.tcp_keepalive) refers to inet_chksum.o(i.inet_chksum_pseudo) for inet_chksum_pseudo
    tcp_out.o(i.tcp_keepalive) refers to ip.o(i.ip_output) for ip_output
    tcp_out.o(i.tcp_keepalive) refers to pbuf.o(i.pbuf_free) for pbuf_free
    tcp_out.o(i.tcp_output) refers to uread4.o(.text) for __aeabi_uread4
    tcp_out.o(i.tcp_output) refers to inet.o(i.ntohl) for ntohl
    tcp_out.o(i.tcp_output) refers to tcp_out.o(i.tcp_send_empty_ack) for tcp_send_empty_ack
    tcp_out.o(i.tcp_output) refers to inet.o(i.htons) for htons
    tcp_out.o(i.tcp_output) refers to tcp_out.o(i.tcp_output_segment) for tcp_output_segment
    tcp_out.o(i.tcp_output) refers to inet.o(i.ntohs) for ntohs
    tcp_out.o(i.tcp_output) refers to tcp.o(i.tcp_seg_free) for tcp_seg_free
    tcp_out.o(i.tcp_output) refers to tcp_in.o(.data) for tcp_input_pcb
    tcp_out.o(i.tcp_output_segment) refers to inet.o(i.htonl) for htonl
    tcp_out.o(i.tcp_output_segment) refers to uwrite4.o(.text) for __aeabi_uwrite4
    tcp_out.o(i.tcp_output_segment) refers to inet.o(i.htons) for htons
    tcp_out.o(i.tcp_output_segment) refers to ip.o(i.ip_route) for ip_route
    tcp_out.o(i.tcp_output_segment) refers to uread4.o(.text) for __aeabi_uread4
    tcp_out.o(i.tcp_output_segment) refers to inet.o(i.ntohl) for ntohl
    tcp_out.o(i.tcp_output_segment) refers to inet_chksum.o(i.inet_chksum_pseudo) for inet_chksum_pseudo
    tcp_out.o(i.tcp_output_segment) refers to ip.o(i.ip_output) for ip_output
    tcp_out.o(i.tcp_output_segment) refers to ch57xsock.o(.bss) for CH57xCfg
    tcp_out.o(i.tcp_output_segment) refers to tcp.o(.data) for tcp_ticks
    tcp_out.o(i.tcp_output_set_header) refers to inet.o(i.htons) for htons
    tcp_out.o(i.tcp_output_set_header) refers to uwrite4.o(.text) for __aeabi_uwrite4
    tcp_out.o(i.tcp_output_set_header) refers to inet.o(i.htonl) for htonl
    tcp_out.o(i.tcp_output_set_header) refers to inet.o(i.ntohs) for ntohs
    tcp_out.o(i.tcp_rexmit) refers to uread4.o(.text) for __aeabi_uread4
    tcp_out.o(i.tcp_rexmit) refers to inet.o(i.ntohl) for ntohl
    tcp_out.o(i.tcp_rexmit_fast) refers to tcp_out.o(i.tcp_rexmit) for tcp_rexmit
    tcp_out.o(i.tcp_rexmit_rto) refers to tcp_out.o(i.tcp_output) for tcp_output
    tcp_out.o(i.tcp_rst) refers to pbuf.o(i.pbuf_alloc) for pbuf_alloc
    tcp_out.o(i.tcp_rst) refers to inet.o(i.htons) for htons
    tcp_out.o(i.tcp_rst) refers to inet.o(i.htonl) for htonl
    tcp_out.o(i.tcp_rst) refers to uwrite4.o(.text) for __aeabi_uwrite4
    tcp_out.o(i.tcp_rst) refers to inet.o(i.ntohs) for ntohs
    tcp_out.o(i.tcp_rst) refers to inet_chksum.o(i.inet_chksum_pseudo) for inet_chksum_pseudo
    tcp_out.o(i.tcp_rst) refers to ip.o(i.ip_output) for ip_output
    tcp_out.o(i.tcp_rst) refers to pbuf.o(i.pbuf_free) for pbuf_free
    tcp_out.o(i.tcp_rst) refers to ch57xsock.o(.bss) for CH57xCfg
    tcp_out.o(i.tcp_send_ctrl) refers to tcp_out.o(i.tcp_enqueue) for tcp_enqueue
    tcp_out.o(i.tcp_send_empty_ack) refers to pbuf.o(i.pbuf_alloc) for pbuf_alloc
    tcp_out.o(i.tcp_send_empty_ack) refers to inet.o(i.htonl) for htonl
    tcp_out.o(i.tcp_send_empty_ack) refers to tcp_out.o(i.tcp_output_set_header) for tcp_output_set_header
    tcp_out.o(i.tcp_send_empty_ack) refers to inet_chksum.o(i.inet_chksum_pseudo) for inet_chksum_pseudo
    tcp_out.o(i.tcp_send_empty_ack) refers to ip.o(i.ip_output) for ip_output
    tcp_out.o(i.tcp_send_empty_ack) refers to pbuf.o(i.pbuf_free) for pbuf_free
    tcp_out.o(i.tcp_write) refers to tcp_out.o(i.tcp_enqueue) for tcp_enqueue
    tcp_out.o(i.tcp_zero_window_probe) refers to inet.o(i.ntohs) for ntohs
    tcp_out.o(i.tcp_zero_window_probe) refers to pbuf.o(i.pbuf_alloc) for pbuf_alloc
    tcp_out.o(i.tcp_zero_window_probe) refers to uread4.o(.text) for __aeabi_uread4
    tcp_out.o(i.tcp_zero_window_probe) refers to tcp_out.o(i.tcp_output_set_header) for tcp_output_set_header
    tcp_out.o(i.tcp_zero_window_probe) refers to inet.o(i.htons) for htons
    tcp_out.o(i.tcp_zero_window_probe) refers to inet_chksum.o(i.inet_chksum_pseudo) for inet_chksum_pseudo
    tcp_out.o(i.tcp_zero_window_probe) refers to ip.o(i.ip_output) for ip_output
    tcp_out.o(i.tcp_zero_window_probe) refers to pbuf.o(i.pbuf_free) for pbuf_free
    udp.o(i.udp_bind) refers to uread4.o(.text) for __aeabi_uread4
    udp.o(i.udp_bind) refers to udp.o(.data) for .data
    udp.o(i.udp_connect) refers to udp.o(i.udp_bind) for udp_bind
    udp.o(i.udp_connect) refers to uread4.o(.text) for __aeabi_uread4
    udp.o(i.udp_connect) refers to ip.o(i.ip_route) for ip_route
    udp.o(i.udp_connect) refers to udp.o(.data) for .data
    udp.o(i.udp_disconnect) refers to uread4.o(.text) for __aeabi_uread4
    udp.o(i.udp_disconnect) refers to ip_addr.o(.constdata) for ip_addr_any
    udp.o(i.udp_input) refers to inet.o(i.ntohs) for ntohs
    udp.o(i.udp_input) refers to pbuf.o(i.pbuf_header) for pbuf_header
    udp.o(i.udp_input) refers to pbuf.o(i.pbuf_free) for pbuf_free
    udp.o(i.udp_input) refers to ip_addr.o(i.ip_addr_isbroadcast) for ip_addr_isbroadcast
    udp.o(i.udp_input) refers to uread4.o(.text) for __aeabi_uread4
    udp.o(i.udp_input) refers to inet.o(i.ntohl) for ntohl
    udp.o(i.udp_input) refers to inet_chksum.o(i.inet_chksum_pseudo) for inet_chksum_pseudo
    udp.o(i.udp_input) refers to icmp.o(i.icmp_dest_unreach) for icmp_dest_unreach
    udp.o(i.udp_input) refers to udp.o(.data) for .data
    udp.o(i.udp_new) refers to memp.o(i.memp_malloc) for memp_malloc
    udp.o(i.udp_new) refers to memseta.o(.text) for __aeabi_memclr4
    udp.o(i.udp_remove) refers to memp.o(i.memp_free) for memp_free
    udp.o(i.udp_remove) refers to udp.o(.data) for .data
    udp.o(i.udp_send) refers to udp.o(i.udp_sendto) for udp_sendto
    udp.o(i.udp_sendto) refers to ip.o(i.ip_route) for ip_route
    udp.o(i.udp_sendto) refers to udp.o(i.udp_sendto_if) for udp_sendto_if
    udp.o(i.udp_sendto_if) refers to udp.o(i.udp_bind) for udp_bind
    udp.o(i.udp_sendto_if) refers to pbuf.o(i.pbuf_header) for pbuf_header
    udp.o(i.udp_sendto_if) refers to pbuf.o(i.pbuf_alloc) for pbuf_alloc
    udp.o(i.udp_sendto_if) refers to pbuf.o(i.pbuf_chain) for pbuf_chain
    udp.o(i.udp_sendto_if) refers to inet.o(i.htons) for htons
    udp.o(i.udp_sendto_if) refers to pbuf.o(i.pbuf_free) for pbuf_free
    udp.o(i.udp_sendto_if) refers to inet_chksum.o(i.inet_chksum_pseudo) for inet_chksum_pseudo
    udp.o(i.udp_sendto_if) refers to ip.o(i.ip_output_if) for ip_output_if
    inet.o(i.inet_addr) refers to inet.o(i.inet_aton) for inet_aton
    inet.o(i.inet_aton) refers to tcp.o(i.__ARM_common_switch8) for __ARM_common_switch8
    inet.o(i.inet_ntoa) refers to uidiv.o(.text) for __aeabi_uidivmod
    inet.o(i.inet_ntoa) refers to inet.o(.bss) for .bss
    ip_addr.o(i.ip_addr_isbroadcast) refers to uread4.o(.text) for __aeabi_uread4
    etharp.o(i.GET_MAC) refers to uread4.o(.text) for __aeabi_uread4
    etharp.o(i.GET_MAC) refers to etharp.o(.data) for .data
    etharp.o(i.GET_MAC) refers to ch57xsock.o(.bss) for CH57xCfg
    etharp.o(i.etharp_arp_input) refers to inet.o(i.htons) for htons
    etharp.o(i.etharp_arp_input) refers to memcpya.o(.text) for __aeabi_memcpy
    etharp.o(i.etharp_arp_input) refers to etharp.o(i.update_arp_entry) for update_arp_entry
    etharp.o(i.etharp_arp_input) refers to ch57xnet_dhcp.o(i.dhcp_arp_reply) for dhcp_arp_reply
    etharp.o(i.etharp_arp_input) refers to pbuf.o(i.pbuf_free) for pbuf_free
    etharp.o(i.etharp_arp_input) refers to ethernetif.o(.bss) for DHCPCtrl
    etharp.o(i.etharp_find_addr) refers to etharp.o(i.find_entry) for find_entry
    etharp.o(i.etharp_find_addr) refers to etharp.o(.data) for .data
    etharp.o(i.etharp_ip_input) refers to uread4.o(.text) for __aeabi_uread4
    etharp.o(i.etharp_ip_input) refers to etharp.o(i.update_arp_entry) for update_arp_entry
    etharp.o(i.etharp_output) refers to pbuf.o(i.pbuf_header) for pbuf_header
    etharp.o(i.etharp_output) refers to ip_addr.o(i.ip_addr_isbroadcast) for ip_addr_isbroadcast
    etharp.o(i.etharp_output) refers to uread4.o(.text) for __aeabi_uread4
    etharp.o(i.etharp_output) refers to inet.o(i.ntohl) for ntohl
    etharp.o(i.etharp_output) refers to etharp.o(i.etharp_send_ip) for etharp_send_ip
    etharp.o(i.etharp_output) refers to etharp.o(i.etharp_query) for etharp_query
    etharp.o(i.etharp_output) refers to etharp.o(.constdata) for .constdata
    etharp.o(i.etharp_query) refers to ip_addr.o(i.ip_addr_isbroadcast) for ip_addr_isbroadcast
    etharp.o(i.etharp_query) refers to uread4.o(.text) for __aeabi_uread4
    etharp.o(i.etharp_query) refers to inet.o(i.ntohl) for ntohl
    etharp.o(i.etharp_query) refers to etharp.o(i.find_entry) for find_entry
    etharp.o(i.etharp_query) refers to ch57xsock.o(i.LwipArpCheck) for LwipArpCheck
    etharp.o(i.etharp_query) refers to etharp.o(i.etharp_request) for etharp_request
    etharp.o(i.etharp_query) refers to etharp.o(i.etharp_send_ip) for etharp_send_ip
    etharp.o(i.etharp_query) refers to etharp.o(.data) for .data
    etharp.o(i.etharp_raw) refers to pbuf.o(i.pbuf_alloc) for pbuf_alloc
    etharp.o(i.etharp_raw) refers to inet.o(i.htons) for htons
    etharp.o(i.etharp_raw) refers to memcpya.o(.text) for __aeabi_memcpy
    etharp.o(i.etharp_raw) refers to pbuf.o(i.pbuf_free) for pbuf_free
    etharp.o(i.etharp_request) refers to etharp.o(i.etharp_raw) for etharp_raw
    etharp.o(i.etharp_request) refers to etharp.o(.constdata) for .constdata
    etharp.o(i.etharp_send_ip) refers to inet.o(i.htons) for htons
    etharp.o(i.etharp_tmr) refers to etharp.o(.data) for .data
    etharp.o(i.etharp_tmr) refers to ch57xsock.o(.bss) for CH57xCfg
    etharp.o(i.ethernet_input) refers to inet.o(i.htons) for htons
    etharp.o(i.ethernet_input) refers to etharp.o(i.etharp_ip_input) for etharp_ip_input
    etharp.o(i.ethernet_input) refers to pbuf.o(i.pbuf_header) for pbuf_header
    etharp.o(i.ethernet_input) refers to pbuf.o(i.pbuf_free) for pbuf_free
    etharp.o(i.ethernet_input) refers to ip.o(i.ip_input) for ip_input
    etharp.o(i.ethernet_input) refers to etharp.o(i.etharp_arp_input) for etharp_arp_input
    etharp.o(i.find_entry) refers to uread4.o(.text) for __aeabi_uread4
    etharp.o(i.find_entry) refers to ch57xsock.o(.bss) for CH57xCfg
    etharp.o(i.find_entry) refers to etharp.o(.data) for .data
    etharp.o(i.update_arp_entry) refers to uread4.o(.text) for __aeabi_uread4
    etharp.o(i.update_arp_entry) refers to ipcheck.o(i.IPConflictHandle) for IPConflictHandle
    etharp.o(i.update_arp_entry) refers to ip_addr.o(i.ip_addr_isbroadcast) for ip_addr_isbroadcast
    etharp.o(i.update_arp_entry) refers to inet.o(i.ntohl) for ntohl
    etharp.o(i.update_arp_entry) refers to etharp.o(i.find_entry) for find_entry
    etharp.o(i.update_arp_entry) refers to etharp.o(.data) for .data
    etharp.o(.data) refers to net_init.o(.bss) for Mem_ArpTable
    ethernetif.o(i.CH57xMACRxSuccHandle) refers to ethernetif.o(.bss) for .bss
    ethernetif.o(i.CH57xMACRxSuccHandle) refers to ch57xsock.o(.bss) for CH57xCfg
    ethernetif.o(i.CH57xMACRxSuccHandle) refers to net_init.o(.bss) for CH57xMACRxBuf
    ethernetif.o(i.CH57xMACRxSuccHandle) refers to ch57xsock.o(.data) for RxQueueEntries
    ethernetif.o(i.CH57xNET_SetHostname) refers to strcpy.o(.text) for strcpy
    ethernetif.o(i.CH57xNET_SetHostname) refers to ethernetif.o(.bss) for .bss
    ethernetif.o(i.LwIPPeriodicHandle) refers to tcp.o(i.tcp_tmr) for tcp_tmr
    ethernetif.o(i.LwIPPeriodicHandle) refers to etharp.o(i.etharp_tmr) for etharp_tmr
    ethernetif.o(i.LwIPPeriodicHandle) refers to ipcheck.o(i.IPCheckTmr) for IPCheckTmr
    ethernetif.o(i.LwIPPeriodicHandle) refers to ethernetif.o(.data) for .data
    ethernetif.o(i.LwIPPeriodicHandle) refers to ch57xsock.o(.bss) for CH57xInf
    ethernetif.o(i.LwIPPeriodicHandle) refers to net_init.o(.data) for CH57xNET_LEDDATA
    ethernetif.o(i.LwIPPeriodicHandle) refers to ch57xnet_nds.o(.bss) for DNSInf
    ethernetif.o(i.LwIPPeriodicHandle) refers to ethernetif.o(.bss) for .bss
    ethernetif.o(i.QuaryEthRxDma) refers to printf8.o(i.__0printf$8) for __2printf
    ethernetif.o(i.QuaryEthRxDma) refers to ethernetif.o(.bss) for .bss
    ethernetif.o(i.QuaryEthRxDma) refers to ch57xsock.o(.bss) for CH57xCfg
    ethernetif.o(i.QuaryEthRxDma) refers to net_init.o(.bss) for CH57xMACRxBuf
    ethernetif.o(i.SetupNetif) refers to init.o(i.lwip_init) for lwip_init
    ethernetif.o(i.SetupNetif) refers to memcpya.o(.text) for __aeabi_memcpy
    ethernetif.o(i.SetupNetif) refers to netif.o(i.netif_set_default) for netif_set_default
    ethernetif.o(i.SetupNetif) refers to netif.o(i.netif_add) for netif_add
    ethernetif.o(i.SetupNetif) refers to ch57xsock.o(.bss) for CH57xInf
    ethernetif.o(i.SetupNetif) refers to ethernetif.o(.data) for .data
    ethernetif.o(i.SetupNetif) refers to ethernetif.o(.bss) for .bss
    ethernetif.o(i.SetupNetif) refers to netif.o(.data) for netif_list
    ethernetif.o(i.SetupNetif) refers to etharp.o(i.ethernet_input) for ethernet_input
    ethernetif.o(i.SetupNetif) refers to ethernetif.o(i.ethernetif_init) for ethernetif_init
    ethernetif.o(i.ethernetif_init) refers to strcpy.o(.text) for strcpy
    ethernetif.o(i.ethernetif_init) refers to ethernetif.o(i.low_level_init) for low_level_init
    ethernetif.o(i.ethernetif_init) refers to ethernetif.o(.bss) for .bss
    ethernetif.o(i.ethernetif_init) refers to etharp.o(i.etharp_output) for etharp_output
    ethernetif.o(i.ethernetif_init) refers to ethernetif.o(i.low_level_output) for low_level_output
    ethernetif.o(i.ethernetif_input) refers to ethernetif.o(i.low_level_input) for low_level_input
    ethernetif.o(i.ethernetif_input) refers to inet.o(i.htons) for htons
    ethernetif.o(i.ethernetif_input) refers to pbuf.o(i.pbuf_free) for pbuf_free
    ethernetif.o(i.ethernetif_input) refers to ethernetif.o(.bss) for .bss
    ethernetif.o(i.ethernetif_input) refers to ethernetif.o(.data) for .data
    ethernetif.o(i.low_level_init) refers to memseta.o(.text) for __aeabi_memclr4
    ethernetif.o(i.low_level_init) refers to ethernetif.o(.data) for .data
    ethernetif.o(i.low_level_init) refers to net_init.o(.bss) for CH57xMACRxBuf
    ethernetif.o(i.low_level_init) refers to ethernetif.o(.bss) for .bss
    ethernetif.o(i.low_level_init) refers to ch57xsock.o(.data) for TxQueueEntries
    ethernetif.o(i.low_level_init) refers to ch57xsock.o(.bss) for CH57xCfg
    ethernetif.o(i.low_level_init) refers to eth.o(.data) for SuccessPackets
    ethernetif.o(i.low_level_input) refers to pbuf.o(i.pbuf_alloc) for pbuf_alloc
    ethernetif.o(i.low_level_input) refers to pbuf.o(i.pbuf_header) for pbuf_header
    ethernetif.o(i.low_level_input) refers to eth.o(i.ETHRec) for ETHRec
    ethernetif.o(i.low_level_input) refers to ethernetif.o(.bss) for .bss
    ethernetif.o(i.low_level_input) refers to ethernetif.o(.data) for .data
    ethernetif.o(i.low_level_input) refers to ch57xsock.o(.data) for RxQueueEntries
    ethernetif.o(i.low_level_output) refers to pbuf.o(i.pbuf_header) for pbuf_header
    ethernetif.o(i.low_level_output) refers to memcpya.o(.text) for __aeabi_memcpy
    ethernetif.o(i.low_level_output) refers to eth.o(i.ETHSend) for ETHSend
    ethernetif.o(i.low_level_output) refers to ethernetif.o(.bss) for .bss
    ethernetif.o(i.low_level_output) refers to ch57xsock.o(.bss) for CH57xInf
    ethernetif.o(i.low_level_output) refers to eth.o(.data) for SuccessPackets
    ethernetif.o(i.low_level_output) refers to ch57xsock.o(.data) for TxQueueEntries
    raw.o(i.raw_bind) refers to uread4.o(.text) for __aeabi_uread4
    raw.o(i.raw_connect) refers to uread4.o(.text) for __aeabi_uread4
    raw.o(i.raw_input) refers to inet.o(i.ntohs) for ntohs
    raw.o(i.raw_input) refers to raw.o(.data) for .data
    raw.o(i.raw_new) refers to memp.o(i.memp_malloc) for memp_malloc
    raw.o(i.raw_new) refers to memseta.o(.text) for __aeabi_memclr4
    raw.o(i.raw_new) refers to raw.o(.data) for .data
    raw.o(i.raw_remove) refers to memp.o(i.memp_free) for memp_free
    raw.o(i.raw_remove) refers to raw.o(.data) for .data
    raw.o(i.raw_send) refers to raw.o(i.raw_sendto) for raw_sendto
    raw.o(i.raw_sendto) refers to pbuf.o(i.pbuf_header) for pbuf_header
    raw.o(i.raw_sendto) refers to pbuf.o(i.pbuf_alloc) for pbuf_alloc
    raw.o(i.raw_sendto) refers to pbuf.o(i.pbuf_chain) for pbuf_chain
    raw.o(i.raw_sendto) refers to ip.o(i.ip_route) for ip_route
    raw.o(i.raw_sendto) refers to ip.o(i.ip_output_if) for ip_output_if
    raw.o(i.raw_sendto) refers to pbuf.o(i.pbuf_free) for pbuf_free
    hal.o(i.InitCH57xMAC) refers to eth.o(i.ETHInit) for ETHInit
    hal.o(i.InitCH57xMAC) refers to eth.o(.data) for SuccessPackets
    hal.o(i.InitCH57xMAC) refers to ch57xsock.o(.bss) for CH57xInf
    ipcheck.o(i.IPCheckParaInit) refers to uwrite4.o(.text) for __aeabi_uwrite4
    ipcheck.o(i.IPCheckParaInit) refers to ipcheck.o(.bss) for .bss
    ipcheck.o(i.IPCheckParaInit) refers to ethernetif.o(.data) for LocalTime
    ipcheck.o(i.IPCheckTmr) refers to uread4.o(.text) for __aeabi_uread4
    ipcheck.o(i.IPCheckTmr) refers to uwrite4.o(.text) for __aeabi_uwrite4
    ipcheck.o(i.IPCheckTmr) refers to ipcheck.o(i.IPCheckParaInit) for IPCheckParaInit
    ipcheck.o(i.IPCheckTmr) refers to ipcheck.o(i.SelIPARPSend) for SelIPARPSend
    ipcheck.o(i.IPCheckTmr) refers to ipcheck.o(.bss) for .bss
    ipcheck.o(i.IPConflictHandle) refers to ipcheck.o(i.IPCheckParaInit) for IPCheckParaInit
    ipcheck.o(i.IPConflictHandle) refers to ipcheck.o(.bss) for .bss
    ipcheck.o(i.IPConflictHandle) refers to ch57xsock.o(.bss) for CH57xInf
    ipcheck.o(i.SelIPARPSend) refers to etharp.o(i.etharp_request) for etharp_request
    ipcheck.o(i.SelIPARPSend) refers to ethernetif.o(.bss) for CH57xNetIf
    ch57xnet_nds.o(i.CH57xNET_GetHostName) refers to ch57xnet_nds.o(i.dns_gethostbyname) for dns_gethostbyname
    ch57xnet_nds.o(i.CH57xNET_GetHostName) refers to ch57xsock.o(i.ErrorEncode) for ErrorEncode
    ch57xnet_nds.o(i.CH57xNET_InitDNS) refers to memcpya.o(.text) for __aeabi_memcpy
    ch57xnet_nds.o(i.CH57xNET_InitDNS) refers to ch57xnet_nds.o(.bss) for .bss
    ch57xnet_nds.o(i.CH57xNET_InitDNS) refers to ch57xnet_nds.o(i.dns_tmr) for dns_tmr
    ch57xnet_nds.o(i.CH57xNET_InitDNS) refers to ch57xnet_nds.o(i.dns_init) for dns_init
    ch57xnet_nds.o(i.dns_check_entry) refers to ch57xnet_nds.o(i.dns_send) for dns_send
    ch57xnet_nds.o(i.dns_check_entry) refers to uread4.o(.text) for __aeabi_uread4
    ch57xnet_nds.o(i.dns_check_entry) refers to ch57xnet_nds.o(.bss) for .bss
    ch57xnet_nds.o(i.dns_check_entry) refers to ch57xnet_nds.o(.data) for .data
    ch57xnet_nds.o(i.dns_enqueue) refers to strcpy.o(.text) for strcpy
    ch57xnet_nds.o(i.dns_enqueue) refers to ch57xnet_nds.o(i.dns_check_entry) for dns_check_entry
    ch57xnet_nds.o(i.dns_enqueue) refers to ch57xnet_nds.o(.data) for .data
    ch57xnet_nds.o(i.dns_enqueue) refers to ch57xnet_nds.o(.bss) for .bss
    ch57xnet_nds.o(i.dns_gethostbyname) refers to strlen.o(.text) for strlen
    ch57xnet_nds.o(i.dns_gethostbyname) refers to inet.o(i.inet_addr) for inet_addr
    ch57xnet_nds.o(i.dns_gethostbyname) refers to uwrite4.o(.text) for __aeabi_uwrite4
    ch57xnet_nds.o(i.dns_gethostbyname) refers to strcmp.o(.text) for strcmp
    ch57xnet_nds.o(i.dns_gethostbyname) refers to ch57xnet_nds.o(i.dns_enqueue) for dns_enqueue
    ch57xnet_nds.o(i.dns_gethostbyname) refers to ch57xnet_nds.o(.data) for .data
    ch57xnet_nds.o(i.dns_gethostbyname) refers to ch57xnet_nds.o(.bss) for .bss
    ch57xnet_nds.o(i.dns_getserver) refers to memcpya.o(.text) for __aeabi_memcpy
    ch57xnet_nds.o(i.dns_getserver) refers to ch57xnet_nds.o(.data) for .data
    ch57xnet_nds.o(i.dns_getserver) refers to ip_addr.o(.constdata) for ip_addr_any
    ch57xnet_nds.o(i.dns_init) refers to udp.o(i.udp_new) for udp_new
    ch57xnet_nds.o(i.dns_init) refers to udp.o(i.udp_bind) for udp_bind
    ch57xnet_nds.o(i.dns_init) refers to udp.o(i.udp_recv) for udp_recv
    ch57xnet_nds.o(i.dns_init) refers to ch57xnet_nds.o(i.dns_setserver) for dns_setserver
    ch57xnet_nds.o(i.dns_init) refers to ch57xnet_nds.o(.bss) for .bss
    ch57xnet_nds.o(i.dns_init) refers to ch57xnet_nds.o(.data) for .data
    ch57xnet_nds.o(i.dns_init) refers to ip_addr.o(.constdata) for ip_addr_any
    ch57xnet_nds.o(i.dns_init) refers to ch57xnet_nds.o(i.dns_recv) for dns_recv
    ch57xnet_nds.o(i.dns_recv) refers to mem.o(i.mem_malloc) for mem_malloc
    ch57xnet_nds.o(i.dns_recv) refers to pbuf.o(i.pbuf_copy_partial) for pbuf_copy_partial
    ch57xnet_nds.o(i.dns_recv) refers to inet.o(i.htons) for htons
    ch57xnet_nds.o(i.dns_recv) refers to ch57xnet_nds.o(i.dns_parse_name) for dns_parse_name
    ch57xnet_nds.o(i.dns_recv) refers to memcpya.o(.text) for __aeabi_memcpy
    ch57xnet_nds.o(i.dns_recv) refers to inet.o(i.ntohs) for ntohs
    ch57xnet_nds.o(i.dns_recv) refers to mem.o(i.mem_free) for mem_free
    ch57xnet_nds.o(i.dns_recv) refers to pbuf.o(i.pbuf_free) for pbuf_free
    ch57xnet_nds.o(i.dns_recv) refers to inet.o(i.ntohl) for ntohl
    ch57xnet_nds.o(i.dns_recv) refers to ch57xnet_nds.o(.bss) for .bss
    ch57xnet_nds.o(i.dns_send) refers to pbuf.o(i.pbuf_alloc) for pbuf_alloc
    ch57xnet_nds.o(i.dns_send) refers to memseta.o(.text) for __aeabi_memclr
    ch57xnet_nds.o(i.dns_send) refers to inet.o(i.htons) for htons
    ch57xnet_nds.o(i.dns_send) refers to memcpya.o(.text) for __aeabi_memcpy
    ch57xnet_nds.o(i.dns_send) refers to pbuf.o(i.pbuf_realloc) for pbuf_realloc
    ch57xnet_nds.o(i.dns_send) refers to udp.o(i.udp_connect) for udp_connect
    ch57xnet_nds.o(i.dns_send) refers to udp.o(i.udp_sendto) for udp_sendto
    ch57xnet_nds.o(i.dns_send) refers to pbuf.o(i.pbuf_free) for pbuf_free
    ch57xnet_nds.o(i.dns_send) refers to ch57xnet_nds.o(.bss) for .bss
    ch57xnet_nds.o(i.dns_send) refers to ch57xnet_nds.o(.data) for .data
    ch57xnet_nds.o(i.dns_setserver) refers to uread4.o(.text) for __aeabi_uread4
    ch57xnet_nds.o(i.dns_setserver) refers to memcpya.o(.text) for __aeabi_memcpy
    ch57xnet_nds.o(i.dns_setserver) refers to ch57xnet_nds.o(.data) for .data
    ch57xnet_nds.o(i.dns_tmr) refers to ch57xnet_nds.o(i.dns_check_entry) for dns_check_entry
    ch57xnet_nds.o(i.dns_tmr) refers to ch57xnet_nds.o(.data) for .data
    init.o(i.lwip_init) refers to mem.o(i.mem_init) for mem_init
    init.o(i.lwip_init) refers to memp.o(i.memp_init) for memp_init
    init.o(i.lwip_init) refers to ch57xnet_nds.o(.bss) for DNSInf
    memp.o(i.memp_free) refers to memp.o(.bss) for .bss
    memp.o(i.memp_init) refers to memp.o(.data) for .data
    memp.o(i.memp_init) refers to memp.o(.bss) for .bss
    memp.o(i.memp_malloc) refers to memp.o(.bss) for .bss
    memp.o(.data) refers to net_init.o(.data) for MemSize
    memp.o(.data) refers to net_init.o(.bss) for Memp_Memory
    tcp_in.o(i.tcp_input) refers to inet.o(i.ntohs) for ntohs
    tcp_in.o(i.tcp_input) refers to pbuf.o(i.pbuf_header) for pbuf_header
    tcp_in.o(i.tcp_input) refers to ip_addr.o(i.ip_addr_isbroadcast) for ip_addr_isbroadcast
    tcp_in.o(i.tcp_input) refers to uread4.o(.text) for __aeabi_uread4
    tcp_in.o(i.tcp_input) refers to inet.o(i.ntohl) for ntohl
    tcp_in.o(i.tcp_input) refers to inet_chksum.o(i.inet_chksum_pseudo) for inet_chksum_pseudo
    tcp_in.o(i.tcp_input) refers to uwrite4.o(.text) for __aeabi_uwrite4
    tcp_in.o(i.tcp_input) refers to tcp_in.o(i.tcp_timewait_input) for tcp_timewait_input
    tcp_in.o(i.tcp_input) refers to tcp_in.o(i.tcp_listen_input) for tcp_listen_input
    tcp_in.o(i.tcp_input) refers to tcp_out.o(i.tcp_rst) for tcp_rst
    tcp_in.o(i.tcp_input) refers to pbuf.o(i.pbuf_free) for pbuf_free
    tcp_in.o(i.tcp_input) refers to tcp.o(i.tcp_recv_null) for tcp_recv_null
    tcp_in.o(i.tcp_input) refers to tcp_in.o(i.tcp_process) for tcp_process
    tcp_in.o(i.tcp_input) refers to ch57xsock.o(i.CH57xFileCorrectTCBPcb) for CH57xFileCorrectTCBPcb
    tcp_in.o(i.tcp_input) refers to ch57xsock.o(i.LwipRemoveTcpPcb) for LwipRemoveTcpPcb
    tcp_in.o(i.tcp_input) refers to tcp.o(i.tcp_pcb_remove) for tcp_pcb_remove
    tcp_in.o(i.tcp_input) refers to memp.o(i.memp_free) for memp_free
    tcp_in.o(i.tcp_input) refers to tcp_out.o(i.tcp_output) for tcp_output
    tcp_in.o(i.tcp_input) refers to tcp_in.o(.data) for .data
    tcp_in.o(i.tcp_input) refers to tcp.o(.data) for tcp_active_pcbs
    tcp_in.o(i.tcp_input) refers to tcp_in.o(.bss) for .bss
    tcp_in.o(i.tcp_listen_input) refers to tcp_out.o(i.tcp_rst) for tcp_rst
    tcp_in.o(i.tcp_listen_input) refers to tcp.o(i.tcp_alloc) for tcp_alloc
    tcp_in.o(i.tcp_listen_input) refers to uread4.o(.text) for __aeabi_uread4
    tcp_in.o(i.tcp_listen_input) refers to tcp_in.o(i.tcp_parseopt) for tcp_parseopt
    tcp_in.o(i.tcp_listen_input) refers to tcp.o(i.tcp_eff_send_mss) for tcp_eff_send_mss
    tcp_in.o(i.tcp_listen_input) refers to tcp_out.o(i.tcp_enqueue) for tcp_enqueue
    tcp_in.o(i.tcp_listen_input) refers to tcp.o(i.tcp_abandon) for tcp_abandon
    tcp_in.o(i.tcp_listen_input) refers to tcp_out.o(i.tcp_output) for tcp_output
    tcp_in.o(i.tcp_listen_input) refers to tcp_in.o(.data) for .data
    tcp_in.o(i.tcp_listen_input) refers to tcp.o(.data) for tcp_active_pcbs
    tcp_in.o(i.tcp_oos_insert_segment) refers to inet.o(i.ntohs) for ntohs
    tcp_in.o(i.tcp_oos_insert_segment) refers to tcp.o(i.tcp_segs_free) for tcp_segs_free
    tcp_in.o(i.tcp_oos_insert_segment) refers to inet.o(i.htons) for htons
    tcp_in.o(i.tcp_oos_insert_segment) refers to tcp.o(i.tcp_seg_free) for tcp_seg_free
    tcp_in.o(i.tcp_oos_insert_segment) refers to uread4.o(.text) for __aeabi_uread4
    tcp_in.o(i.tcp_oos_insert_segment) refers to pbuf.o(i.pbuf_realloc) for pbuf_realloc
    tcp_in.o(i.tcp_oos_insert_segment) refers to tcp_in.o(.data) for .data
    tcp_in.o(i.tcp_parseopt) refers to inet.o(i.ntohs) for ntohs
    tcp_in.o(i.tcp_parseopt) refers to tcp_in.o(.data) for .data
    tcp_in.o(i.tcp_parseopt) refers to ch57xsock.o(.bss) for CH57xCfg
    tcp_in.o(i.tcp_process) refers to tcp_out.o(i.tcp_output) for tcp_output
    tcp_in.o(i.tcp_process) refers to tcp_in.o(i.tcp_parseopt) for tcp_parseopt
    tcp_in.o(i.tcp_process) refers to tcp.o(i.__ARM_common_switch8) for __ARM_common_switch8
    tcp_in.o(i.tcp_process) refers to uread4.o(.text) for __aeabi_uread4
    tcp_in.o(i.tcp_process) refers to inet.o(i.ntohl) for ntohl
    tcp_in.o(i.tcp_process) refers to tcp.o(i.tcp_eff_send_mss) for tcp_eff_send_mss
    tcp_in.o(i.tcp_process) refers to tcp.o(i.tcp_seg_free) for tcp_seg_free
    tcp_in.o(i.tcp_process) refers to tcp.o(i.tcp_abandon) for tcp_abandon
    tcp_in.o(i.tcp_process) refers to tcp_in.o(i.tcp_receive) for tcp_receive
    tcp_in.o(i.tcp_process) refers to tcp_out.o(i.tcp_rst) for tcp_rst
    tcp_in.o(i.tcp_process) refers to tcp_out.o(i.tcp_rexmit) for tcp_rexmit
    tcp_in.o(i.tcp_process) refers to tcp.o(i.tcp_pcb_purge) for tcp_pcb_purge
    tcp_in.o(i.tcp_process) refers to tcp_in.o(.data) for .data
    tcp_in.o(i.tcp_process) refers to tcp.o(.data) for tcp_ticks
    tcp_in.o(i.tcp_receive) refers to tcp_out.o(i.tcp_rexmit_fast) for tcp_rexmit_fast
    tcp_in.o(i.tcp_receive) refers to idiv.o(.text) for __aeabi_idivmod
    tcp_in.o(i.tcp_receive) refers to inet.o(i.ntohs) for ntohs
    tcp_in.o(i.tcp_receive) refers to pbuf.o(i.pbuf_clen) for pbuf_clen
    tcp_in.o(i.tcp_receive) refers to tcp.o(i.tcp_seg_free) for tcp_seg_free
    tcp_in.o(i.tcp_receive) refers to uread4.o(.text) for __aeabi_uread4
    tcp_in.o(i.tcp_receive) refers to inet.o(i.ntohl) for ntohl
    tcp_in.o(i.tcp_receive) refers to pbuf.o(i.pbuf_header) for pbuf_header
    tcp_in.o(i.tcp_receive) refers to uwrite4.o(.text) for __aeabi_uwrite4
    tcp_in.o(i.tcp_receive) refers to tcp_out.o(i.tcp_output) for tcp_output
    tcp_in.o(i.tcp_receive) refers to inet.o(i.htons) for htons
    tcp_in.o(i.tcp_receive) refers to pbuf.o(i.pbuf_realloc) for pbuf_realloc
    tcp_in.o(i.tcp_receive) refers to tcp_in.o(.data) for .data
    tcp_in.o(i.tcp_receive) refers to tcp.o(.data) for tcp_ticks
    tcp_in.o(i.tcp_receive) refers to tcp_in.o(.bss) for .bss
    tcp_in.o(i.tcp_receive) refers to tcp.o(i.tcp_update_rcv_ann_wnd) for tcp_update_rcv_ann_wnd
    tcp_in.o(i.tcp_receive) refers to pbuf.o(i.pbuf_cat) for pbuf_cat
    tcp_in.o(i.tcp_receive) refers to tcp_out.o(i.tcp_send_empty_ack) for tcp_send_empty_ack
    tcp_in.o(i.tcp_receive) refers to tcp.o(i.tcp_seg_copy) for tcp_seg_copy
    tcp_in.o(i.tcp_receive) refers to tcp_in.o(i.tcp_oos_insert_segment) for tcp_oos_insert_segment
    tcp_in.o(i.tcp_timewait_input) refers to tcp_out.o(i.tcp_rst) for tcp_rst
    tcp_in.o(i.tcp_timewait_input) refers to tcp_out.o(i.tcp_output) for tcp_output
    tcp_in.o(i.tcp_timewait_input) refers to tcp_in.o(.data) for .data
    tcp_in.o(i.tcp_timewait_input) refers to tcp.o(.data) for tcp_ticks
    icmp.o(i.icmp_dest_unreach) refers to icmp.o(i.icmp_send_response) for icmp_send_response
    icmp.o(i.icmp_input) refers to inet.o(i.ntohs) for ntohs
    icmp.o(i.icmp_input) refers to pbuf.o(i.pbuf_header) for pbuf_header
    icmp.o(i.icmp_input) refers to memcpya.o(.text) for __aeabi_memcpy
    icmp.o(i.icmp_input) refers to ch57xsock.o(i.LwipUnreachPort) for LwipUnreachPort
    icmp.o(i.icmp_input) refers to uread4.o(.text) for __aeabi_uread4
    icmp.o(i.icmp_input) refers to inet.o(i.ntohl) for ntohl
    icmp.o(i.icmp_input) refers to ip_addr.o(i.ip_addr_isbroadcast) for ip_addr_isbroadcast
    icmp.o(i.icmp_input) refers to ch57xsock.o(i.QueryPingEnable) for QueryPingEnable
    icmp.o(i.icmp_input) refers to inet_chksum.o(i.inet_chksum_pbuf) for inet_chksum_pbuf
    icmp.o(i.icmp_input) refers to pbuf.o(i.pbuf_alloc) for pbuf_alloc
    icmp.o(i.icmp_input) refers to pbuf.o(i.pbuf_copy) for pbuf_copy
    icmp.o(i.icmp_input) refers to pbuf.o(i.pbuf_free) for pbuf_free
    icmp.o(i.icmp_input) refers to uwrite4.o(.text) for __aeabi_uwrite4
    icmp.o(i.icmp_input) refers to inet.o(i.htons) for htons
    icmp.o(i.icmp_input) refers to inet_chksum.o(i.inet_chksum) for inet_chksum
    icmp.o(i.icmp_input) refers to ip.o(i.ip_output_if) for ip_output_if
    icmp.o(i.icmp_send_response) refers to pbuf.o(i.pbuf_alloc) for pbuf_alloc
    icmp.o(i.icmp_send_response) refers to memcpya.o(.text) for __aeabi_memcpy
    icmp.o(i.icmp_send_response) refers to inet_chksum.o(i.inet_chksum) for inet_chksum
    icmp.o(i.icmp_send_response) refers to ip.o(i.ip_output) for ip_output
    icmp.o(i.icmp_send_response) refers to pbuf.o(i.pbuf_free) for pbuf_free
    ip.o(i.ip_input) refers to inet.o(i.ntohs) for ntohs
    ip.o(i.ip_input) refers to pbuf.o(i.pbuf_free) for pbuf_free
    ip.o(i.ip_input) refers to inet_chksum.o(i.inet_chksum) for inet_chksum
    ip.o(i.ip_input) refers to pbuf.o(i.pbuf_realloc) for pbuf_realloc
    ip.o(i.ip_input) refers to inet.o(i.ntohl) for ntohl
    ip.o(i.ip_input) refers to netif.o(i.netif_is_up) for netif_is_up
    ip.o(i.ip_input) refers to uread4.o(.text) for __aeabi_uread4
    ip.o(i.ip_input) refers to ip_addr.o(i.ip_addr_isbroadcast) for ip_addr_isbroadcast
    ip.o(i.ip_input) refers to inet.o(i.htons) for htons
    ip.o(i.ip_input) refers to raw.o(i.raw_input) for raw_input
    ip.o(i.ip_input) refers to udp.o(i.udp_input) for udp_input
    ip.o(i.ip_input) refers to tcp_in.o(i.tcp_input) for tcp_input
    ip.o(i.ip_input) refers to icmp.o(i.icmp_input) for icmp_input
    ip.o(i.ip_input) refers to icmp.o(i.icmp_dest_unreach) for icmp_dest_unreach
    ip.o(i.ip_input) refers to netif.o(.data) for netif_list
    ip.o(i.ip_input) refers to ip.o(.data) for .data
    ip.o(i.ip_output) refers to ip.o(i.ip_route) for ip_route
    ip.o(i.ip_output) refers to ip.o(i.ip_output_if) for ip_output_if
    ip.o(i.ip_output_if) refers to pbuf.o(i.pbuf_header) for pbuf_header
    ip.o(i.ip_output_if) refers to inet.o(i.ntohs) for ntohs
    ip.o(i.ip_output_if) refers to inet.o(i.htons) for htons
    ip.o(i.ip_output_if) refers to uread4.o(.text) for __aeabi_uread4
    ip.o(i.ip_output_if) refers to uwrite4.o(.text) for __aeabi_uwrite4
    ip.o(i.ip_output_if) refers to inet_chksum.o(i.inet_chksum) for inet_chksum
    ip.o(i.ip_output_if) refers to ip_frag.o(i.ip_frag) for ip_frag
    ip.o(i.ip_output_if) refers to ip.o(.data) for .data
    ip.o(i.ip_route) refers to netif.o(i.netif_is_up) for netif_is_up
    ip.o(i.ip_route) refers to uread4.o(.text) for __aeabi_uread4
    ip.o(i.ip_route) refers to netif.o(.data) for netif_list
    inet_chksum.o(i.inet_chksum) refers to inet_chksum.o(i.lwip_standard_chksum) for lwip_standard_chksum
    inet_chksum.o(i.inet_chksum_pbuf) refers to inet_chksum.o(i.lwip_standard_chksum) for lwip_standard_chksum
    inet_chksum.o(i.inet_chksum_pseudo) refers to inet_chksum.o(i.lwip_standard_chksum) for lwip_standard_chksum
    inet_chksum.o(i.inet_chksum_pseudo) refers to uread4.o(.text) for __aeabi_uread4
    inet_chksum.o(i.inet_chksum_pseudo) refers to inet.o(i.htons) for htons
    inet_chksum.o(i.lwip_standard_chksum) refers to inet.o(i.htons) for htons
    ip_frag.o(i.ip_frag) refers to inet.o(i.ntohs) for ntohs
    ip_frag.o(i.ip_frag) refers to pbuf.o(i.pbuf_alloc) for pbuf_alloc
    ip_frag.o(i.ip_frag) refers to memcpya.o(.text) for __aeabi_memcpy
    ip_frag.o(i.ip_frag) refers to pbuf.o(i.pbuf_cat) for pbuf_cat
    ip_frag.o(i.ip_frag) refers to inet.o(i.htons) for htons
    ip_frag.o(i.ip_frag) refers to inet_chksum.o(i.inet_chksum) for inet_chksum
    ip_frag.o(i.ip_frag) refers to pbuf.o(i.pbuf_free) for pbuf_free
    entry.o(.ARM.Collect$$$$00000000) refers (Special) to entry10a.o(.ARM.Collect$$$$0000000D) for __rt_final_cpp
    entry.o(.ARM.Collect$$$$00000000) refers (Special) to entry11a.o(.ARM.Collect$$$$0000000F) for __rt_final_exit
    entry.o(.ARM.Collect$$$$00000000) refers (Special) to entry7b.o(.ARM.Collect$$$$00000008) for _main_clock
    entry.o(.ARM.Collect$$$$00000000) refers (Special) to entry8b.o(.ARM.Collect$$$$0000000A) for _main_cpp_init
    entry.o(.ARM.Collect$$$$00000000) refers (Special) to entry9a.o(.ARM.Collect$$$$0000000B) for _main_init
    entry.o(.ARM.Collect$$$$00000000) refers (Special) to entry5.o(.ARM.Collect$$$$00000004) for _main_scatterload
    entry.o(.ARM.Collect$$$$00000000) refers (Special) to entry2.o(.ARM.Collect$$$$00000001) for _main_stk
    idiv.o(.text) refers to uidiv.o(.text) for __aeabi_uidivmod
    printfb.o(i.__0fprintf$bare) refers to printfb.o(i._printf_core) for _printf_core
    printfb.o(i.__0fprintf$bare) refers to uart.o(i.fputc) for fputc
    printfb.o(i.__0printf$bare) refers to printfb.o(i._printf_core) for _printf_core
    printfb.o(i.__0printf$bare) refers to uart.o(i.fputc) for fputc
    printfb.o(i.__0printf$bare) refers to stdout.o(.data) for __stdout
    printfb.o(i.__0snprintf$bare) refers to printfb.o(i._printf_core) for _printf_core
    printfb.o(i.__0snprintf$bare) refers to printfb.o(i._snputc) for _snputc
    printfb.o(i.__0sprintf$bare) refers to printfb.o(i._printf_core) for _printf_core
    printfb.o(i.__0sprintf$bare) refers to printfb.o(i._sputc) for _sputc
    printfb.o(i.__0vfprintf$bare) refers to printfb.o(i._printf_core) for _printf_core
    printfb.o(i.__0vfprintf$bare) refers to uart.o(i.fputc) for fputc
    printfb.o(i.__0vprintf$bare) refers to printfb.o(i._printf_core) for _printf_core
    printfb.o(i.__0vprintf$bare) refers to uart.o(i.fputc) for fputc
    printfb.o(i.__0vprintf$bare) refers to stdout.o(.data) for __stdout
    printfb.o(i.__0vsnprintf$bare) refers to printfb.o(i._printf_core) for _printf_core
    printfb.o(i.__0vsnprintf$bare) refers to printfb.o(i._snputc) for _snputc
    printfb.o(i.__0vsprintf$bare) refers to printfb.o(i._printf_core) for _printf_core
    printfb.o(i.__0vsprintf$bare) refers to printfb.o(i._sputc) for _sputc
    printf0.o(i.__0fprintf$0) refers to printf0.o(i._printf_core) for _printf_core
    printf0.o(i.__0fprintf$0) refers to uart.o(i.fputc) for fputc
    printf0.o(i.__0printf$0) refers to printf0.o(i._printf_core) for _printf_core
    printf0.o(i.__0printf$0) refers to uart.o(i.fputc) for fputc
    printf0.o(i.__0printf$0) refers to stdout.o(.data) for __stdout
    printf0.o(i.__0snprintf$0) refers to printf0.o(i._printf_core) for _printf_core
    printf0.o(i.__0snprintf$0) refers to printf0.o(i._snputc) for _snputc
    printf0.o(i.__0sprintf$0) refers to printf0.o(i._printf_core) for _printf_core
    printf0.o(i.__0sprintf$0) refers to printf0.o(i._sputc) for _sputc
    printf0.o(i.__0vfprintf$0) refers to printf0.o(i._printf_core) for _printf_core
    printf0.o(i.__0vfprintf$0) refers to uart.o(i.fputc) for fputc
    printf0.o(i.__0vprintf$0) refers to printf0.o(i._printf_core) for _printf_core
    printf0.o(i.__0vprintf$0) refers to uart.o(i.fputc) for fputc
    printf0.o(i.__0vprintf$0) refers to stdout.o(.data) for __stdout
    printf0.o(i.__0vsnprintf$0) refers to printf0.o(i._printf_core) for _printf_core
    printf0.o(i.__0vsnprintf$0) refers to printf0.o(i._snputc) for _snputc
    printf0.o(i.__0vsprintf$0) refers to printf0.o(i._printf_core) for _printf_core
    printf0.o(i.__0vsprintf$0) refers to printf0.o(i._sputc) for _sputc
    printf1.o(i.__0fprintf$1) refers to printf1.o(i._printf_core) for _printf_core
    printf1.o(i.__0fprintf$1) refers to uart.o(i.fputc) for fputc
    printf1.o(i.__0printf$1) refers to printf1.o(i._printf_core) for _printf_core
    printf1.o(i.__0printf$1) refers to uart.o(i.fputc) for fputc
    printf1.o(i.__0printf$1) refers to stdout.o(.data) for __stdout
    printf1.o(i.__0snprintf$1) refers to printf1.o(i._printf_core) for _printf_core
    printf1.o(i.__0snprintf$1) refers to printf1.o(i._snputc) for _snputc
    printf1.o(i.__0sprintf$1) refers to printf1.o(i._printf_core) for _printf_core
    printf1.o(i.__0sprintf$1) refers to printf1.o(i._sputc) for _sputc
    printf1.o(i.__0vfprintf$1) refers to printf1.o(i._printf_core) for _printf_core
    printf1.o(i.__0vfprintf$1) refers to uart.o(i.fputc) for fputc
    printf1.o(i.__0vprintf$1) refers to printf1.o(i._printf_core) for _printf_core
    printf1.o(i.__0vprintf$1) refers to uart.o(i.fputc) for fputc
    printf1.o(i.__0vprintf$1) refers to stdout.o(.data) for __stdout
    printf1.o(i.__0vsnprintf$1) refers to printf1.o(i._printf_core) for _printf_core
    printf1.o(i.__0vsnprintf$1) refers to printf1.o(i._snputc) for _snputc
    printf1.o(i.__0vsprintf$1) refers to printf1.o(i._printf_core) for _printf_core
    printf1.o(i.__0vsprintf$1) refers to printf1.o(i._sputc) for _sputc
    printf1.o(i._printf_core) refers to uidiv.o(.text) for __aeabi_uidivmod
    printf2.o(i.__0fprintf$2) refers to printf2.o(i._printf_core) for _printf_core
    printf2.o(i.__0fprintf$2) refers to uart.o(i.fputc) for fputc
    printf2.o(i.__0printf$2) refers to printf2.o(i._printf_core) for _printf_core
    printf2.o(i.__0printf$2) refers to uart.o(i.fputc) for fputc
    printf2.o(i.__0printf$2) refers to stdout.o(.data) for __stdout
    printf2.o(i.__0snprintf$2) refers to printf2.o(i._printf_core) for _printf_core
    printf2.o(i.__0snprintf$2) refers to printf2.o(i._snputc) for _snputc
    printf2.o(i.__0sprintf$2) refers to printf2.o(i._printf_core) for _printf_core
    printf2.o(i.__0sprintf$2) refers to printf2.o(i._sputc) for _sputc
    printf2.o(i.__0vfprintf$2) refers to printf2.o(i._printf_core) for _printf_core
    printf2.o(i.__0vfprintf$2) refers to uart.o(i.fputc) for fputc
    printf2.o(i.__0vprintf$2) refers to printf2.o(i._printf_core) for _printf_core
    printf2.o(i.__0vprintf$2) refers to uart.o(i.fputc) for fputc
    printf2.o(i.__0vprintf$2) refers to stdout.o(.data) for __stdout
    printf2.o(i.__0vsnprintf$2) refers to printf2.o(i._printf_core) for _printf_core
    printf2.o(i.__0vsnprintf$2) refers to printf2.o(i._snputc) for _snputc
    printf2.o(i.__0vsprintf$2) refers to printf2.o(i._printf_core) for _printf_core
    printf2.o(i.__0vsprintf$2) refers to printf2.o(i._sputc) for _sputc
    printf3.o(i.__0fprintf$3) refers to printf3.o(i._printf_core) for _printf_core
    printf3.o(i.__0fprintf$3) refers to uart.o(i.fputc) for fputc
    printf3.o(i.__0printf$3) refers to printf3.o(i._printf_core) for _printf_core
    printf3.o(i.__0printf$3) refers to uart.o(i.fputc) for fputc
    printf3.o(i.__0printf$3) refers to stdout.o(.data) for __stdout
    printf3.o(i.__0snprintf$3) refers to printf3.o(i._printf_core) for _printf_core
    printf3.o(i.__0snprintf$3) refers to printf3.o(i._snputc) for _snputc
    printf3.o(i.__0sprintf$3) refers to printf3.o(i._printf_core) for _printf_core
    printf3.o(i.__0sprintf$3) refers to printf3.o(i._sputc) for _sputc
    printf3.o(i.__0vfprintf$3) refers to printf3.o(i._printf_core) for _printf_core
    printf3.o(i.__0vfprintf$3) refers to uart.o(i.fputc) for fputc
    printf3.o(i.__0vprintf$3) refers to printf3.o(i._printf_core) for _printf_core
    printf3.o(i.__0vprintf$3) refers to uart.o(i.fputc) for fputc
    printf3.o(i.__0vprintf$3) refers to stdout.o(.data) for __stdout
    printf3.o(i.__0vsnprintf$3) refers to printf3.o(i._printf_core) for _printf_core
    printf3.o(i.__0vsnprintf$3) refers to printf3.o(i._snputc) for _snputc
    printf3.o(i.__0vsprintf$3) refers to printf3.o(i._printf_core) for _printf_core
    printf3.o(i.__0vsprintf$3) refers to printf3.o(i._sputc) for _sputc
    printf3.o(i._printf_core) refers to uidiv.o(.text) for __aeabi_uidivmod
    printf4.o(i.__0fprintf$4) refers to printf4.o(i._printf_core) for _printf_core
    printf4.o(i.__0fprintf$4) refers to uart.o(i.fputc) for fputc
    printf4.o(i.__0printf$4) refers to printf4.o(i._printf_core) for _printf_core
    printf4.o(i.__0printf$4) refers to uart.o(i.fputc) for fputc
    printf4.o(i.__0printf$4) refers to stdout.o(.data) for __stdout
    printf4.o(i.__0snprintf$4) refers to printf4.o(i._printf_core) for _printf_core
    printf4.o(i.__0snprintf$4) refers to printf4.o(i._snputc) for _snputc
    printf4.o(i.__0sprintf$4) refers to printf4.o(i._printf_core) for _printf_core
    printf4.o(i.__0sprintf$4) refers to printf4.o(i._sputc) for _sputc
    printf4.o(i.__0vfprintf$4) refers to printf4.o(i._printf_core) for _printf_core
    printf4.o(i.__0vfprintf$4) refers to uart.o(i.fputc) for fputc
    printf4.o(i.__0vprintf$4) refers to printf4.o(i._printf_core) for _printf_core
    printf4.o(i.__0vprintf$4) refers to uart.o(i.fputc) for fputc
    printf4.o(i.__0vprintf$4) refers to stdout.o(.data) for __stdout
    printf4.o(i.__0vsnprintf$4) refers to printf4.o(i._printf_core) for _printf_core
    printf4.o(i.__0vsnprintf$4) refers to printf4.o(i._snputc) for _snputc
    printf4.o(i.__0vsprintf$4) refers to printf4.o(i._printf_core) for _printf_core
    printf4.o(i.__0vsprintf$4) refers to printf4.o(i._sputc) for _sputc
    printf4.o(i._printf_core) refers to uldiv.o(.text) for __aeabi_uldivmod
    printf5.o(i.__0fprintf$5) refers to printf5.o(i._printf_core) for _printf_core
    printf5.o(i.__0fprintf$5) refers to uart.o(i.fputc) for fputc
    printf5.o(i.__0printf$5) refers to printf5.o(i._printf_core) for _printf_core
    printf5.o(i.__0printf$5) refers to uart.o(i.fputc) for fputc
    printf5.o(i.__0printf$5) refers to stdout.o(.data) for __stdout
    printf5.o(i.__0snprintf$5) refers to printf5.o(i._printf_core) for _printf_core
    printf5.o(i.__0snprintf$5) refers to printf5.o(i._snputc) for _snputc
    printf5.o(i.__0sprintf$5) refers to printf5.o(i._printf_core) for _printf_core
    printf5.o(i.__0sprintf$5) refers to printf5.o(i._sputc) for _sputc
    printf5.o(i.__0vfprintf$5) refers to printf5.o(i._printf_core) for _printf_core
    printf5.o(i.__0vfprintf$5) refers to uart.o(i.fputc) for fputc
    printf5.o(i.__0vprintf$5) refers to printf5.o(i._printf_core) for _printf_core
    printf5.o(i.__0vprintf$5) refers to uart.o(i.fputc) for fputc
    printf5.o(i.__0vprintf$5) refers to stdout.o(.data) for __stdout
    printf5.o(i.__0vsnprintf$5) refers to printf5.o(i._printf_core) for _printf_core
    printf5.o(i.__0vsnprintf$5) refers to printf5.o(i._snputc) for _snputc
    printf5.o(i.__0vsprintf$5) refers to printf5.o(i._printf_core) for _printf_core
    printf5.o(i.__0vsprintf$5) refers to printf5.o(i._sputc) for _sputc
    printf5.o(i._printf_core) refers to uldiv.o(.text) for __aeabi_uldivmod
    printf6.o(i.__0fprintf$6) refers to printf6.o(i._printf_core) for _printf_core
    printf6.o(i.__0fprintf$6) refers to uart.o(i.fputc) for fputc
    printf6.o(i.__0printf$6) refers to printf6.o(i._printf_core) for _printf_core
    printf6.o(i.__0printf$6) refers to uart.o(i.fputc) for fputc
    printf6.o(i.__0printf$6) refers to stdout.o(.data) for __stdout
    printf6.o(i.__0snprintf$6) refers to printf6.o(i._printf_core) for _printf_core
    printf6.o(i.__0snprintf$6) refers to printf6.o(i._snputc) for _snputc
    printf6.o(i.__0sprintf$6) refers to printf6.o(i._printf_core) for _printf_core
    printf6.o(i.__0sprintf$6) refers to printf6.o(i._sputc) for _sputc
    printf6.o(i.__0vfprintf$6) refers to printf6.o(i._printf_core) for _printf_core
    printf6.o(i.__0vfprintf$6) refers to uart.o(i.fputc) for fputc
    printf6.o(i.__0vprintf$6) refers to printf6.o(i._printf_core) for _printf_core
    printf6.o(i.__0vprintf$6) refers to uart.o(i.fputc) for fputc
    printf6.o(i.__0vprintf$6) refers to stdout.o(.data) for __stdout
    printf6.o(i.__0vsnprintf$6) refers to printf6.o(i._printf_core) for _printf_core
    printf6.o(i.__0vsnprintf$6) refers to printf6.o(i._snputc) for _snputc
    printf6.o(i.__0vsprintf$6) refers to printf6.o(i._printf_core) for _printf_core
    printf6.o(i.__0vsprintf$6) refers to printf6.o(i._sputc) for _sputc
    printf6.o(i._printf_core) refers to printf6.o(i._printf_pre_padding) for _printf_pre_padding
    printf6.o(i._printf_core) refers to printf6.o(i._printf_post_padding) for _printf_post_padding
    printf6.o(i._printf_core) refers to uidiv.o(.text) for __aeabi_uidivmod
    printf7.o(i.__0fprintf$7) refers to printf7.o(i._printf_core) for _printf_core
    printf7.o(i.__0fprintf$7) refers to uart.o(i.fputc) for fputc
    printf7.o(i.__0printf$7) refers to printf7.o(i._printf_core) for _printf_core
    printf7.o(i.__0printf$7) refers to uart.o(i.fputc) for fputc
    printf7.o(i.__0printf$7) refers to stdout.o(.data) for __stdout
    printf7.o(i.__0snprintf$7) refers to printf7.o(i._printf_core) for _printf_core
    printf7.o(i.__0snprintf$7) refers to printf7.o(i._snputc) for _snputc
    printf7.o(i.__0sprintf$7) refers to printf7.o(i._printf_core) for _printf_core
    printf7.o(i.__0sprintf$7) refers to printf7.o(i._sputc) for _sputc
    printf7.o(i.__0vfprintf$7) refers to printf7.o(i._printf_core) for _printf_core
    printf7.o(i.__0vfprintf$7) refers to uart.o(i.fputc) for fputc
    printf7.o(i.__0vprintf$7) refers to printf7.o(i._printf_core) for _printf_core
    printf7.o(i.__0vprintf$7) refers to uart.o(i.fputc) for fputc
    printf7.o(i.__0vprintf$7) refers to stdout.o(.data) for __stdout
    printf7.o(i.__0vsnprintf$7) refers to printf7.o(i._printf_core) for _printf_core
    printf7.o(i.__0vsnprintf$7) refers to printf7.o(i._snputc) for _snputc
    printf7.o(i.__0vsprintf$7) refers to printf7.o(i._printf_core) for _printf_core
    printf7.o(i.__0vsprintf$7) refers to printf7.o(i._sputc) for _sputc
    printf7.o(i._printf_core) refers to printf7.o(i._printf_pre_padding) for _printf_pre_padding
    printf7.o(i._printf_core) refers to printf7.o(i._printf_post_padding) for _printf_post_padding
    printf7.o(i._printf_core) refers to uldiv.o(.text) for __aeabi_uldivmod
    printf8.o(i.__0fprintf$8) refers to printf8.o(i._printf_core) for _printf_core
    printf8.o(i.__0fprintf$8) refers to uart.o(i.fputc) for fputc
    printf8.o(i.__0printf$8) refers to printf8.o(i._printf_core) for _printf_core
    printf8.o(i.__0printf$8) refers to uart.o(i.fputc) for fputc
    printf8.o(i.__0printf$8) refers to stdout.o(.data) for __stdout
    printf8.o(i.__0snprintf$8) refers to printf8.o(i._printf_core) for _printf_core
    printf8.o(i.__0snprintf$8) refers to printf8.o(i._snputc) for _snputc
    printf8.o(i.__0sprintf$8) refers to printf8.o(i._printf_core) for _printf_core
    printf8.o(i.__0sprintf$8) refers to printf8.o(i._sputc) for _sputc
    printf8.o(i.__0vfprintf$8) refers to printf8.o(i._printf_core) for _printf_core
    printf8.o(i.__0vfprintf$8) refers to uart.o(i.fputc) for fputc
    printf8.o(i.__0vprintf$8) refers to printf8.o(i._printf_core) for _printf_core
    printf8.o(i.__0vprintf$8) refers to uart.o(i.fputc) for fputc
    printf8.o(i.__0vprintf$8) refers to stdout.o(.data) for __stdout
    printf8.o(i.__0vsnprintf$8) refers to printf8.o(i._printf_core) for _printf_core
    printf8.o(i.__0vsnprintf$8) refers to printf8.o(i._snputc) for _snputc
    printf8.o(i.__0vsprintf$8) refers to printf8.o(i._printf_core) for _printf_core
    printf8.o(i.__0vsprintf$8) refers to printf8.o(i._sputc) for _sputc
    printf8.o(i._printf_core) refers to printf8.o(i._printf_pre_padding) for _printf_pre_padding
    printf8.o(i._printf_core) refers to printf8.o(i._printf_post_padding) for _printf_post_padding
    printf8.o(i._printf_core) refers to uldiv.o(.text) for __aeabi_uldivmod
    printfa.o(i.__0fprintf) refers (Special) to iusefp.o(.text) for __I$use$fp
    printfa.o(i.__0fprintf) refers to printfa.o(i._printf_core) for _printf_core
    printfa.o(i.__0fprintf) refers to uart.o(i.fputc) for fputc
    printfa.o(i.__0printf) refers (Special) to iusefp.o(.text) for __I$use$fp
    printfa.o(i.__0printf) refers to printfa.o(i._printf_core) for _printf_core
    printfa.o(i.__0printf) refers to uart.o(i.fputc) for fputc
    printfa.o(i.__0printf) refers to stdout.o(.data) for __stdout
    printfa.o(i.__0snprintf) refers (Special) to iusefp.o(.text) for __I$use$fp
    printfa.o(i.__0snprintf) refers to printfa.o(i._printf_core) for _printf_core
    printfa.o(i.__0snprintf) refers to printfa.o(i._snputc) for _snputc
    printfa.o(i.__0sprintf) refers (Special) to iusefp.o(.text) for __I$use$fp
    printfa.o(i.__0sprintf) refers to printfa.o(i._printf_core) for _printf_core
    printfa.o(i.__0sprintf) refers to printfa.o(i._sputc) for _sputc
    printfa.o(i.__0vfprintf) refers (Special) to iusefp.o(.text) for __I$use$fp
    printfa.o(i.__0vfprintf) refers to printfa.o(i._printf_core) for _printf_core
    printfa.o(i.__0vfprintf) refers to uart.o(i.fputc) for fputc
    printfa.o(i.__0vprintf) refers (Special) to iusefp.o(.text) for __I$use$fp
    printfa.o(i.__0vprintf) refers to printfa.o(i._printf_core) for _printf_core
    printfa.o(i.__0vprintf) refers to uart.o(i.fputc) for fputc
    printfa.o(i.__0vprintf) refers to stdout.o(.data) for __stdout
    printfa.o(i.__0vsnprintf) refers (Special) to iusefp.o(.text) for __I$use$fp
    printfa.o(i.__0vsnprintf) refers to printfa.o(i._printf_core) for _printf_core
    printfa.o(i.__0vsnprintf) refers to printfa.o(i._snputc) for _snputc
    printfa.o(i.__0vsprintf) refers (Special) to iusefp.o(.text) for __I$use$fp
    printfa.o(i.__0vsprintf) refers to printfa.o(i._printf_core) for _printf_core
    printfa.o(i.__0vsprintf) refers to printfa.o(i._sputc) for _sputc
    printfa.o(i._fp_digits) refers (Special) to iusefp.o(.text) for __I$use$fp
    printfa.o(i._fp_digits) refers to dmul.o(.text) for __aeabi_dmul
    printfa.o(i._fp_digits) refers to ddiv.o(.text) for __aeabi_ddiv
    printfa.o(i._fp_digits) refers to cdrcmple.o(.text) for __aeabi_cdrcmple
    printfa.o(i._fp_digits) refers to dadd.o(.text) for __aeabi_dadd
    printfa.o(i._fp_digits) refers to dfixul.o(.text) for __aeabi_d2ulz
    printfa.o(i._fp_digits) refers to uldiv.o(.text) for __aeabi_uldivmod
    printfa.o(i._printf_core) refers (Special) to iusefp.o(.text) for __I$use$fp
    printfa.o(i._printf_core) refers to printfa.o(i._printf_pre_padding) for _printf_pre_padding
    printfa.o(i._printf_core) refers to uldiv.o(.text) for __aeabi_uldivmod
    printfa.o(i._printf_core) refers to printfa.o(i._printf_post_padding) for _printf_post_padding
    printfa.o(i._printf_core) refers to printfa.o(i._fp_digits) for _fp_digits
    printfa.o(i._printf_core) refers to uidiv.o(.text) for __aeabi_uidivmod
    printfa.o(i._printf_post_padding) refers (Special) to iusefp.o(.text) for __I$use$fp
    printfa.o(i._printf_pre_padding) refers (Special) to iusefp.o(.text) for __I$use$fp
    printfa.o(i._snputc) refers (Special) to iusefp.o(.text) for __I$use$fp
    printfa.o(i._sputc) refers (Special) to iusefp.o(.text) for __I$use$fp
    entry2.o(.ARM.Collect$$$$00000001) refers to entry2.o(.ARM.Collect$$$$00002712) for __lit__00000000
    entry2.o(__vectab_stack_and_reset_area) refers to entry.o(.ARM.Collect$$$$00000000) for __main
    entry5.o(.ARM.Collect$$$$00000004) refers to init.o(.text) for __scatterload
    entry9a.o(.ARM.Collect$$$$0000000B) refers to main.o(i.main) for main
    entry9b.o(.ARM.Collect$$$$0000000C) refers to main.o(i.main) for main
    uldiv.o(.text) refers to llushr.o(.text) for __aeabi_llsr
    uldiv.o(.text) refers to llshl.o(.text) for __aeabi_llsl
    dadd.o(.text) refers to llshl.o(.text) for __aeabi_llsl
    dadd.o(.text) refers to llsshr.o(.text) for __aeabi_lasr
    dadd.o(.text) refers to depilogue.o(.text) for _double_epilogue
    dmul.o(.text) refers to depilogue.o(.text) for _double_epilogue
    ddiv.o(.text) refers to depilogue.o(.text) for _double_round
    dfixul.o(.text) refers to llushr.o(.text) for __aeabi_llsr
    dfixul.o(.text) refers to llshl.o(.text) for __aeabi_llsl
    init.o(.text) refers to entry5.o(.ARM.Collect$$$$00000004) for __main_after_scatterload
    depilogue.o(.text) refers to depilogue.o(i.__ARM_clz) for __ARM_clz
    depilogue.o(.text) refers to llshl.o(.text) for __aeabi_llsl
    depilogue.o(.text) refers to llushr.o(.text) for __aeabi_llsr


==============================================================================

Removing Unused input sections from the image.

    Removing main.o(.rev16_text), (4 bytes).
    Removing main.o(.revsh_text), (4 bytes).
    Removing uart.o(.rev16_text), (4 bytes).
    Removing uart.o(.revsh_text), (4 bytes).
    Removing uart.o(i.uart_send_bytes), (70 bytes).
    Removing uart.o(.bss), (1006 bytes).
    Removing time.o(.rev16_text), (4 bytes).
    Removing time.o(.revsh_text), (4 bytes).
    Removing led.o(.rev16_text), (4 bytes).
    Removing led.o(.revsh_text), (4 bytes).
    Removing led.o(i.led_get), (16 bytes).
    Removing led.o(i.led_set), (120 bytes).
    Removing led.o(.data), (1 bytes).
    Removing sys_tick.o(.rev16_text), (4 bytes).
    Removing sys_tick.o(.revsh_text), (4 bytes).
    Removing sys_tick.o(i.sys_tick_get_timer), (12 bytes).
    Removing usartlist.o(.rev16_text), (4 bytes).
    Removing usartlist.o(.revsh_text), (4 bytes).
    Removing data_forward.o(.rev16_text), (4 bytes).
    Removing data_forward.o(.revsh_text), (4 bytes).
    Removing data_forward.o(i.DataForward_GetPeerActivePort), (44 bytes).
    Removing data_forward.o(i.DataForward_SetDefaultRoute), (2 bytes).
    Removing ch57x_adc.o(.rev16_text), (4 bytes).
    Removing ch57x_adc.o(.revsh_text), (4 bytes).
    Removing ch57x_adc.o(i.ADC_DataCalib_Fine), (140 bytes).
    Removing ch57x_adc.o(i.ADC_DataCalib_Rough), (132 bytes).
    Removing ch57x_adc.o(i.ADC_ExcutSingleConver), (36 bytes).
    Removing ch57x_adc.o(i.ADC_ExtDiffChSampInit), (20 bytes).
    Removing ch57x_adc.o(i.ADC_ExtSingleChSampInit), (20 bytes).
    Removing ch57x_adc.o(i.ADC_GetCurrentTS), (152 bytes).
    Removing ch57x_adc.o(i.ADC_InterBATSampInit), (16 bytes).
    Removing ch57x_adc.o(i.ADC_InterTSSampInit), (28 bytes).
    Removing ch57x_adc.o(i.TouchKey_ChSampInit), (16 bytes).
    Removing ch57x_adc.o(i.TouchKey_ExcutSingleConver), (40 bytes).
    Removing ch57x_clk.o(.rev16_text), (4 bytes).
    Removing ch57x_clk.o(.revsh_text), (4 bytes).
    Removing ch57x_clk.o(i.Calibration_LSI), (496 bytes).
    Removing ch57x_clk.o(i.HClk32M_Select), (64 bytes).
    Removing ch57x_clk.o(i.HSECFG_Capacitance), (40 bytes).
    Removing ch57x_clk.o(i.HSECFG_Current), (40 bytes).
    Removing ch57x_clk.o(i.LClk32K_Select), (60 bytes).
    Removing ch57x_clk.o(i.LSECFG_Capacitance), (40 bytes).
    Removing ch57x_clk.o(i.LSECFG_Current), (44 bytes).
    Removing ch57x_clk.o(i.RTC_ClearITFlag), (36 bytes).
    Removing ch57x_clk.o(i.RTC_GetCycle32k), (20 bytes).
    Removing ch57x_clk.o(i.RTC_GetITFlag), (32 bytes).
    Removing ch57x_clk.o(i.RTC_GetTime), (476 bytes).
    Removing ch57x_clk.o(i.RTC_InitTime), (360 bytes).
    Removing ch57x_clk.o(i.RTC_ModeFunDisable), (56 bytes).
    Removing ch57x_clk.o(i.RTC_SetCycle32k), (44 bytes).
    Removing ch57x_clk.o(i.RTC_TMRFunCfg), (56 bytes).
    Removing ch57x_clk.o(i.RTC_TRIGFunCfg), (80 bytes).
    Removing ch57x_flash.o(.rev16_text), (4 bytes).
    Removing ch57x_flash.o(.revsh_text), (4 bytes).
    Removing ch57x_flash.o(i.FlashBlockErase), (324 bytes).
    Removing ch57x_flash.o(i.FlashWriteBuf), (380 bytes).
    Removing ch57x_flash.o(i.FlashWriteDW), (340 bytes).
    Removing ch57x_flash.o(i.GetUniqueID), (28 bytes).
    Removing ch57x_flash.o(.data), (2 bytes).
    Removing ch57x_gpio.o(.rev16_text), (4 bytes).
    Removing ch57x_gpio.o(.revsh_text), (4 bytes).
    Removing ch57x_gpio.o(i.GPIOAGPPCfg), (32 bytes).
    Removing ch57x_gpio.o(i.GPIOA_ITModeCfg), (120 bytes).
    Removing ch57x_gpio.o(i.GPIOB_ITModeCfg), (144 bytes).
    Removing ch57x_int.o(.rev16_text), (4 bytes).
    Removing ch57x_int.o(.revsh_text), (4 bytes).
    Removing ch57x_int.o(i.LowPower_Halt_1), (140 bytes).
    Removing ch57x_int.o(i.LowPower_Halt_2), (184 bytes).
    Removing ch57x_int.o(i.LowPower_Shutdown), (196 bytes).
    Removing ch57x_int.o(i.LowPower_Sleep), (196 bytes).
    Removing ch57x_lcd.o(.rev16_text), (4 bytes).
    Removing ch57x_lcd.o(.revsh_text), (4 bytes).
    Removing ch57x_lcd.o(i.LCD_DefInit), (12 bytes).
    Removing ch57x_pwm.o(.rev16_text), (4 bytes).
    Removing ch57x_pwm.o(.revsh_text), (4 bytes).
    Removing ch57x_pwm.o(i.PWMX_ACTOUT), (92 bytes).
    Removing ch57x_pwm.o(i.PWMX_AlterOutCfg), (32 bytes).
    Removing ch57x_pwm.o(i.PWMX_CycleCfg), (156 bytes).
    Removing ch57x_pwr.o(.rev16_text), (4 bytes).
    Removing ch57x_pwr.o(.revsh_text), (4 bytes).
    Removing ch57x_pwr.o(i.EnterCodeUpgrade), (156 bytes).
    Removing ch57x_pwr.o(i.LowPower_Idle), (20 bytes).
    Removing ch57x_pwr.o(i.PWR_DCDCCfg), (116 bytes).
    Removing ch57x_pwr.o(i.PWR_PeriphClkCfg), (68 bytes).
    Removing ch57x_pwr.o(i.PWR_PeriphWakeUpCfg), (68 bytes).
    Removing ch57x_spi0.o(.rev16_text), (4 bytes).
    Removing ch57x_spi0.o(.revsh_text), (4 bytes).
    Removing ch57x_spi0.o(i.SPI0_CLKCfg), (40 bytes).
    Removing ch57x_spi0.o(i.SPI0_DataMode), (132 bytes).
    Removing ch57x_spi0.o(i.SPI0_MasterDMARecv), (72 bytes).
    Removing ch57x_spi0.o(i.SPI0_MasterDMATrans), (72 bytes).
    Removing ch57x_spi0.o(i.SPI0_MasterDefInit), (44 bytes).
    Removing ch57x_spi0.o(i.SPI0_MasterRecv), (56 bytes).
    Removing ch57x_spi0.o(i.SPI0_MasterRecvByte), (40 bytes).
    Removing ch57x_spi0.o(i.SPI0_MasterSendByte), (36 bytes).
    Removing ch57x_spi0.o(i.SPI0_MasterTrans), (68 bytes).
    Removing ch57x_spi0.o(i.SPI0_SlaveDMARecv), (72 bytes).
    Removing ch57x_spi0.o(i.SPI0_SlaveDMATrans), (72 bytes).
    Removing ch57x_spi0.o(i.SPI0_SlaveInit), (28 bytes).
    Removing ch57x_spi0.o(i.SPI0_SlaveRecv), (52 bytes).
    Removing ch57x_spi0.o(i.SPI0_SlaveRecvByte), (32 bytes).
    Removing ch57x_spi0.o(i.SPI0_SlaveSendByte), (32 bytes).
    Removing ch57x_spi0.o(i.SPI0_SlaveTrans), (64 bytes).
    Removing ch57x_spi1.o(.rev16_text), (4 bytes).
    Removing ch57x_spi1.o(.revsh_text), (4 bytes).
    Removing ch57x_spi1.o(i.SPI1_CLKCfg), (40 bytes).
    Removing ch57x_spi1.o(i.SPI1_DataMode), (132 bytes).
    Removing ch57x_spi1.o(i.SPI1_MasterDefInit), (44 bytes).
    Removing ch57x_spi1.o(i.SPI1_MasterRecv), (56 bytes).
    Removing ch57x_spi1.o(i.SPI1_MasterRecvByte), (40 bytes).
    Removing ch57x_spi1.o(i.SPI1_MasterSendByte), (36 bytes).
    Removing ch57x_spi1.o(i.SPI1_MasterTrans), (68 bytes).
    Removing ch57x_sys.o(.rev16_text), (4 bytes).
    Removing ch57x_sys.o(.revsh_text), (4 bytes).
    Removing ch57x_sys.o(i.SYS_DisableAllIrq), (24 bytes).
    Removing ch57x_sys.o(i.SYS_GetInfoSta), (32 bytes).
    Removing ch57x_sys.o(i.SYS_GetSysTickCnt), (12 bytes).
    Removing ch57x_sys.o(i.SYS_RecoverIrq), (12 bytes).
    Removing ch57x_sys.o(i.WWDG_ClearFlag), (32 bytes).
    Removing ch57x_sys.o(i.WWDG_ITCfg), (52 bytes).
    Removing ch57x_sys.o(i.WWDG_ResetCfg), (52 bytes).
    Removing ch57x_timer0.o(.rev16_text), (4 bytes).
    Removing ch57x_timer0.o(.revsh_text), (4 bytes).
    Removing ch57x_timer0.o(i.TMR0_CapInit), (24 bytes).
    Removing ch57x_timer0.o(i.TMR0_CountInit), (24 bytes).
    Removing ch57x_timer0.o(i.TMR0_EXTSingleCounterInit), (20 bytes).
    Removing ch57x_timer0.o(i.TMR0_PWMInit), (20 bytes).
    Removing ch57x_timer1.o(.rev16_text), (4 bytes).
    Removing ch57x_timer1.o(.revsh_text), (4 bytes).
    Removing ch57x_timer1.o(i.TMR1_CapInit), (24 bytes).
    Removing ch57x_timer1.o(i.TMR1_CountInit), (24 bytes).
    Removing ch57x_timer1.o(i.TMR1_DMACfg), (44 bytes).
    Removing ch57x_timer1.o(i.TMR1_EXTSingleCounterInit), (20 bytes).
    Removing ch57x_timer1.o(i.TMR1_PWMInit), (20 bytes).
    Removing ch57x_timer1.o(i.TMR1_TimerInit), (20 bytes).
    Removing ch57x_timer2.o(.rev16_text), (4 bytes).
    Removing ch57x_timer2.o(.revsh_text), (4 bytes).
    Removing ch57x_timer2.o(i.TMR2_CapInit), (24 bytes).
    Removing ch57x_timer2.o(i.TMR2_CountInit), (24 bytes).
    Removing ch57x_timer2.o(i.TMR2_DMACfg), (44 bytes).
    Removing ch57x_timer2.o(i.TMR2_EXTSingleCounterInit), (20 bytes).
    Removing ch57x_timer2.o(i.TMR2_PWMInit), (20 bytes).
    Removing ch57x_timer2.o(i.TMR2_TimerInit), (20 bytes).
    Removing ch57x_timer3.o(.rev16_text), (4 bytes).
    Removing ch57x_timer3.o(.revsh_text), (4 bytes).
    Removing ch57x_timer3.o(i.TMR3_CapInit), (24 bytes).
    Removing ch57x_timer3.o(i.TMR3_CountInit), (24 bytes).
    Removing ch57x_timer3.o(i.TMR3_EXTSingleCounterInit), (20 bytes).
    Removing ch57x_timer3.o(i.TMR3_PWMInit), (20 bytes).
    Removing ch57x_timer3.o(i.TMR3_TimerInit), (20 bytes).
    Removing ch57x_uart0.o(.rev16_text), (4 bytes).
    Removing ch57x_uart0.o(.revsh_text), (4 bytes).
    Removing ch57x_uart0.o(i.UART0_ByteTrigCfg), (24 bytes).
    Removing ch57x_uart0.o(i.UART0_RecvString), (32 bytes).
    Removing ch57x_uart0.o(i.UART0_Reset), (12 bytes).
    Removing ch57x_uart0.o(i.UART0_SendString), (36 bytes).
    Removing ch57x_uart1.o(.rev16_text), (4 bytes).
    Removing ch57x_uart1.o(.revsh_text), (4 bytes).
    Removing ch57x_uart1.o(i.UART1_ByteTrigCfg), (24 bytes).
    Removing ch57x_uart1.o(i.UART1_RecvString), (32 bytes).
    Removing ch57x_uart1.o(i.UART1_Reset), (12 bytes).
    Removing ch57x_uart1.o(i.UART1_SendString), (36 bytes).
    Removing ch57x_uart2.o(.rev16_text), (4 bytes).
    Removing ch57x_uart2.o(.revsh_text), (4 bytes).
    Removing ch57x_uart2.o(i.UART2_ByteTrigCfg), (24 bytes).
    Removing ch57x_uart2.o(i.UART2_RecvString), (32 bytes).
    Removing ch57x_uart2.o(i.UART2_Reset), (12 bytes).
    Removing ch57x_uart2.o(i.UART2_SendString), (36 bytes).
    Removing ch57x_uart3.o(.rev16_text), (4 bytes).
    Removing ch57x_uart3.o(.revsh_text), (4 bytes).
    Removing ch57x_uart3.o(i.UART3_ByteTrigCfg), (24 bytes).
    Removing ch57x_uart3.o(i.UART3_RecvString), (32 bytes).
    Removing ch57x_uart3.o(i.UART3_Reset), (12 bytes).
    Removing ch57x_uart3.o(i.UART3_SendString), (36 bytes).
    Removing ch57x_usbdev.o(.rev16_text), (4 bytes).
    Removing ch57x_usbdev.o(.revsh_text), (4 bytes).
    Removing ch57x_usbdev.o(i.DevEP1_IN_Deal), (20 bytes).
    Removing ch57x_usbdev.o(i.DevEP2_IN_Deal), (20 bytes).
    Removing ch57x_usbdev.o(i.DevEP3_IN_Deal), (20 bytes).
    Removing ch57x_usbdev.o(i.DevEP4_IN_Deal), (20 bytes).
    Removing ch57x_usbdev.o(i.USB_DeviceInit), (120 bytes).
    Removing ch57x_usbdev.o(.data), (16 bytes).
    Removing ch57x_usbhostbase.o(.rev16_text), (4 bytes).
    Removing ch57x_usbhostbase.o(.revsh_text), (4 bytes).
    Removing ch57x_usbhostbase.o(i.AnalyzeRootHub), (80 bytes).
    Removing ch57x_usbhostbase.o(i.CopySetupReqPkg), (32 bytes).
    Removing ch57x_usbhostbase.o(i.CtrlClearEndpStall), (40 bytes).
    Removing ch57x_usbhostbase.o(i.CtrlGetConfigDescr), (140 bytes).
    Removing ch57x_usbhostbase.o(i.CtrlGetDeviceDescr), (72 bytes).
    Removing ch57x_usbhostbase.o(i.CtrlSetUsbAddress), (64 bytes).
    Removing ch57x_usbhostbase.o(i.CtrlSetUsbConfig), (40 bytes).
    Removing ch57x_usbhostbase.o(i.CtrlSetUsbIntercace), (40 bytes).
    Removing ch57x_usbhostbase.o(i.DisableRootHubPort), (12 bytes).
    Removing ch57x_usbhostbase.o(i.EnableRootHubPort), (56 bytes).
    Removing ch57x_usbhostbase.o(i.HostCtrlTransfer), (448 bytes).
    Removing ch57x_usbhostbase.o(i.ResetRootHubPort), (88 bytes).
    Removing ch57x_usbhostbase.o(i.SetHostUsbAddr), (24 bytes).
    Removing ch57x_usbhostbase.o(i.SetUsbSpeed), (2 bytes).
    Removing ch57x_usbhostbase.o(i.USBHostTransact), (356 bytes).
    Removing ch57x_usbhostbase.o(i.USB_HostInit), (96 bytes).
    Removing ch57x_usbhostbase.o(i.WaitUSB_Interrupt), (52 bytes).
    Removing ch57x_usbhostbase.o(.bss), (14 bytes).
    Removing ch57x_usbhostbase.o(.constdata), (48 bytes).
    Removing ch57x_usbhostbase.o(.data), (12 bytes).
    Removing ch57x_usbhostclass.o(.rev16_text), (4 bytes).
    Removing ch57x_usbhostclass.o(.revsh_text), (4 bytes).
    Removing ch57x_usbhostclass.o(i.CtrlGetHIDDeviceReport), (92 bytes).
    Removing ch57x_usbhostclass.o(i.CtrlGetHubDescr), (56 bytes).
    Removing ch57x_usbhostclass.o(i.HubClearPortFeature), (68 bytes).
    Removing ch57x_usbhostclass.o(i.HubGetPortStatus), (92 bytes).
    Removing ch57x_usbhostclass.o(i.HubSetPortFeature), (68 bytes).
    Removing ch57x_usbhostclass.o(i.InitRootDevice), (248 bytes).
    Removing ch57x_usbhostclass.o(.bss), (128 bytes).
    Removing ch57x_usbhostclass.o(.constdata), (24 bytes).
    Removing startup_armcm0.o(STACK), (1024 bytes).
    Removing startup_armcm0.o(HEAP), (1024 bytes).
    Removing ch579ufi.o(.rev16_text), (4 bytes).
    Removing ch579ufi.o(.revsh_text), (4 bytes).
    Removing ch579ufi.o(i.CH579DiskConnect), (116 bytes).
    Removing ch579ufi.o(i.CH579LibInit), (84 bytes).
    Removing ch579ufi.o(i.CH579ReadSector), (192 bytes).
    Removing ch579ufi.o(i.CH579WriteSector), (200 bytes).
    Removing ch579ufi.o(i.xFileNameEnumer), (2 bytes).
    Removing ch579ufi.o(.bss), (544 bytes).
    Removing buffermanage.o(.rev16_text), (4 bytes).
    Removing buffermanage.o(.revsh_text), (4 bytes).
    Removing buffermanage.o(i.BufferManageCreate), (56 bytes).
    Removing buffermanage.o(i.BufferManageRead), (64 bytes).
    Removing buffermanage.o(i.BufferManageWrite), (84 bytes).
    Removing looplist.o(.rev16_text), (4 bytes).
    Removing looplist.o(.revsh_text), (4 bytes).
    Removing looplist.o(i.PutData), (44 bytes).
    Removing looplist.o(i.rbCanRead), (58 bytes).
    Removing looplist.o(i.rbCanWrite), (32 bytes).
    Removing looplist.o(i.rbCapacity), (16 bytes).
    Removing looplist.o(i.rbCreate), (22 bytes).
    Removing looplist.o(i.rbDelete), (20 bytes).
    Removing looplist.o(i.rbRead), (164 bytes).
    Removing looplist.o(i.rbWrite), (160 bytes).
    Removing net_init.o(.rev16_text), (4 bytes).
    Removing net_init.o(.revsh_text), (4 bytes).
    Removing net_dhcp.o(.rev16_text), (4 bytes).
    Removing net_dhcp.o(.revsh_text), (4 bytes).
    Removing net_dhcp.o(i.CH57xNET_DHCPCallBack), (312 bytes).
    Removing net_dhcp.o(i.net_dhcp_while), (124 bytes).
    Removing net_dhcp.o(.data), (17 bytes).
    Removing net_dns.o(.rev16_text), (4 bytes).
    Removing net_dns.o(.revsh_text), (4 bytes).
    Removing net_dns.o(i.net_dns_answer), (138 bytes).
    Removing net_dns.o(i.net_dns_get16), (16 bytes).
    Removing net_dns.o(i.net_dns_make_query_msg), (228 bytes).
    Removing net_dns.o(i.net_dns_parse), (28 bytes).
    Removing net_dns.o(i.net_dns_parse_msg), (244 bytes).
    Removing net_dns.o(i.net_dns_parse_name), (116 bytes).
    Removing net_dns.o(i.net_dns_put16), (12 bytes).
    Removing net_dns.o(i.net_dns_query), (240 bytes).
    Removing net_dns.o(i.net_dns_question), (36 bytes).
    Removing net_dns.o(i.net_dns_socket_data), (96 bytes).
    Removing net_dns.o(i.net_dns_socket_init), (156 bytes).
    Removing net_dns.o(i.net_dns_socket_send), (22 bytes).
    Removing net_dns.o(i.net_dns_str_ip), (82 bytes).
    Removing net_dns.o(.bss), (1560 bytes).
    Removing net_tcp_client.o(.rev16_text), (4 bytes).
    Removing net_tcp_client.o(.revsh_text), (4 bytes).
    Removing net_tcp_client.o(i.net_tcp_client_close), (20 bytes).
    Removing net_tcp_client.o(i.net_tcp_client_connect), (116 bytes).
    Removing net_tcp_client.o(i.net_tcp_client_creat_socket), (212 bytes).
    Removing net_tcp_client.o(i.net_tcp_client_data), (280 bytes).
    Removing net_tcp_client.o(i.net_tcp_client_reconnect), (34 bytes).
    Removing net_tcp_client.o(i.net_tcp_client_send), (60 bytes).
    Removing net_tcp_server.o(.rev16_text), (4 bytes).
    Removing net_tcp_server.o(.revsh_text), (4 bytes).
    Removing CH579MAI.o(.text), (4996 bytes).
    Removing CH579MAI.o(.data), (104 bytes).
    Removing ch57xnet_dhcp.o(i.CH57xNET_DHCPHandle), (92 bytes).
    Removing ch57xnet_dhcp.o(i.CH57xNET_DHCPStart), (88 bytes).
    Removing ch57xnet_dhcp.o(i.CH57xNET_DHCPStop), (28 bytes).
    Removing ch57xnet_dhcp.o(i.dhcp_bind), (356 bytes).
    Removing ch57xnet_dhcp.o(i.dhcp_check), (38 bytes).
    Removing ch57xnet_dhcp.o(i.dhcp_coarse_tmr), (96 bytes).
    Removing ch57xnet_dhcp.o(i.dhcp_discover), (216 bytes).
    Removing ch57xnet_dhcp.o(i.dhcp_fine_tmr), (72 bytes).
    Removing ch57xnet_dhcp.o(i.dhcp_free_reply), (34 bytes).
    Removing ch57xnet_dhcp.o(i.dhcp_get_option_long), (22 bytes).
    Removing ch57xnet_dhcp.o(i.dhcp_get_option_ptr), (134 bytes).
    Removing ch57xnet_dhcp.o(i.dhcp_handle_ack), (256 bytes).
    Removing ch57xnet_dhcp.o(i.dhcp_inform), (156 bytes).
    Removing ch57xnet_dhcp.o(i.dhcp_network_changed), (64 bytes).
    Removing ch57xnet_dhcp.o(i.dhcp_option_short), (34 bytes).
    Removing ch57xnet_dhcp.o(i.dhcp_rebind), (188 bytes).
    Removing ch57xnet_dhcp.o(i.dhcp_reboot), (176 bytes).
    Removing ch57xnet_dhcp.o(i.dhcp_recv), (304 bytes).
    Removing ch57xnet_dhcp.o(i.dhcp_release), (184 bytes).
    Removing ch57xnet_dhcp.o(i.dhcp_renew), (184 bytes).
    Removing ch57xnet_dhcp.o(i.dhcp_select), (276 bytes).
    Removing ch57xnet_dhcp.o(i.dhcp_start), (164 bytes).
    Removing ch57xnet_dhcp.o(i.dhcp_stop), (48 bytes).
    Removing ch57xnet_dhcp.o(i.dhcp_timeout), (120 bytes).
    Removing ch57xnet_dhcp.o(i.dhcp_unfold_reply), (108 bytes).
    Removing ch57xsock.o(i.CH57xEtherNetIsr), (36 bytes).
    Removing ch57xsock.o(i.CH57xIPClose), (16 bytes).
    Removing ch57xsock.o(i.CH57xNET_Aton), (18 bytes).
    Removing ch57xsock.o(i.CH57xNET_Ntoa), (20 bytes).
    Removing ch57xsock.o(i.CH57xNET_OpenMac), (20 bytes).
    Removing ch57xsock.o(i.CH57xNET_PrtSocketTCPStat), (2 bytes).
    Removing ch57xsock.o(i.CH57xNET_QueryUnack), (122 bytes).
    Removing ch57xsock.o(i.CH57xNET_RetrySendUnack), (36 bytes).
    Removing ch57xsock.o(i.CH57xNET_SetSocketTTL), (52 bytes).
    Removing ch57xsock.o(i.CH57xNET_SocketConnect), (92 bytes).
    Removing ch57xsock.o(i.CH57xNET_SocketUdpSendTo), (204 bytes).
    Removing ch57xsock.o(i.CH57xSocketTcpDiscon), (40 bytes).
    Removing ch57xsock.o(i.LwipTcpConnectedCallBack), (56 bytes).
    Removing ch57xsock.o(i.getword), (4 bytes).
    Removing eth.o(.rev16_text), (4 bytes).
    Removing eth.o(.revsh_text), (4 bytes).
    Removing eth.o(i.CH57xNET_GetMACAddr), (52 bytes).
    Removing eth.o(i.ETH_IRQ_Rec_Deal), (8 bytes).
    Removing eth.o(i.ETH_IRQ_Send_Deal), (12 bytes).
    Removing eth.o(i.WritePHYReg), (16 bytes).
    Removing mem.o(i.mem_calloc), (26 bytes).
    Removing netif.o(i.netif_find), (60 bytes).
    Removing netif.o(i.netif_remove), (56 bytes).
    Removing netif.o(i.netif_set_down), (16 bytes).
    Removing netif.o(i.netif_set_up), (30 bytes).
    Removing pbuf.o(i.pbuf_coalesce), (46 bytes).
    Removing pbuf.o(i.pbuf_copy_partial), (106 bytes).
    Removing pbuf.o(i.pbuf_dechain), (42 bytes).
    Removing pbuf.o(i.pbuf_take), (72 bytes).
    Removing tcp.o(i.tcp_connect), (208 bytes).
    Removing tcp.o(i.tcp_debug_state_str), (12 bytes).
    Removing tcp.o(i.tcp_setprio), (4 bytes).
    Removing udp.o(i.udp_disconnect), (32 bytes).
    Removing inet.o(i.inet_addr), (22 bytes).
    Removing inet.o(i.inet_aton), (248 bytes).
    Removing inet.o(i.inet_ntoa), (84 bytes).
    Removing inet.o(.bss), (16 bytes).
    Removing etharp.o(i.GET_MAC), (76 bytes).
    Removing etharp.o(i.etharp_find_addr), (52 bytes).
    Removing ethernetif.o(.rev16_text), (4 bytes).
    Removing ethernetif.o(.revsh_text), (4 bytes).
    Removing ethernetif.o(i.CH57xNET_SetHostname), (16 bytes).
    Removing ethernetif.o(.data), (4 bytes).
    Removing hal.o(i.CH57xNET_CloseMac), (40 bytes).
    Removing ch57xnet_nds.o(i.CH57xNET_GetHostName), (20 bytes).
    Removing ch57xnet_nds.o(i.CH57xNET_InitDNS), (44 bytes).
    Removing ch57xnet_nds.o(i.dns_check_entry), (184 bytes).
    Removing ch57xnet_nds.o(i.dns_enqueue), (136 bytes).
    Removing ch57xnet_nds.o(i.dns_gethostbyname), (152 bytes).
    Removing ch57xnet_nds.o(i.dns_getserver), (40 bytes).
    Removing ch57xnet_nds.o(i.dns_init), (72 bytes).
    Removing ch57xnet_nds.o(i.dns_parse_name), (32 bytes).
    Removing ch57xnet_nds.o(i.dns_recv), (376 bytes).
    Removing ch57xnet_nds.o(i.dns_send), (208 bytes).
    Removing ch57xnet_nds.o(i.dns_setserver), (56 bytes).
    Removing ch57xnet_nds.o(i.dns_tmr), (32 bytes).
    Removing ch57xnet_nds.o(.data), (16 bytes).
    Removing dadd.o(.text), (356 bytes).
    Removing dmul.o(.text), (208 bytes).
    Removing ddiv.o(.text), (240 bytes).
    Removing dfixul.o(.text), (64 bytes).
    Removing cdrcmple.o(.text), (40 bytes).
    Removing depilogue.o(.text), (190 bytes).
    Removing depilogue.o(i.__ARM_clz), (46 bytes).

363 unused section(s) (total 33280 bytes) removed from the image.

==============================================================================

Image Symbol Table

    Local Symbols

    Symbol Name                              Value     Ov Type        Size  Object(Section)

    RESET                                    0x00000000   Section      144  startup_armcm0.o(RESET)
    ../clib/../cmprslib/zerorunl2.c          0x00000000   Number         0  __dczerorl2.o ABSOLUTE
    ../clib/microlib/division.c              0x00000000   Number         0  idiv.o ABSOLUTE
    ../clib/microlib/division.c              0x00000000   Number         0  uldiv.o ABSOLUTE
    ../clib/microlib/division.c              0x00000000   Number         0  uidiv.o ABSOLUTE
    ../clib/microlib/init/entry.s            0x00000000   Number         0  entry2.o ABSOLUTE
    ../clib/microlib/init/entry.s            0x00000000   Number         0  entry7b.o ABSOLUTE
    ../clib/microlib/init/entry.s            0x00000000   Number         0  entry10b.o ABSOLUTE
    ../clib/microlib/init/entry.s            0x00000000   Number         0  entry8a.o ABSOLUTE
    ../clib/microlib/init/entry.s            0x00000000   Number         0  entry10a.o ABSOLUTE
    ../clib/microlib/init/entry.s            0x00000000   Number         0  entry9b.o ABSOLUTE
    ../clib/microlib/init/entry.s            0x00000000   Number         0  entry9a.o ABSOLUTE
    ../clib/microlib/init/entry.s            0x00000000   Number         0  entry5.o ABSOLUTE
    ../clib/microlib/init/entry.s            0x00000000   Number         0  entry8b.o ABSOLUTE
    ../clib/microlib/init/entry.s            0x00000000   Number         0  entry.o ABSOLUTE
    ../clib/microlib/init/entry.s            0x00000000   Number         0  entry11b.o ABSOLUTE
    ../clib/microlib/init/entry.s            0x00000000   Number         0  entry7a.o ABSOLUTE
    ../clib/microlib/init/entry.s            0x00000000   Number         0  entry11a.o ABSOLUTE
    ../clib/microlib/longlong.c              0x00000000   Number         0  llushr.o ABSOLUTE
    ../clib/microlib/longlong.c              0x00000000   Number         0  llshl.o ABSOLUTE
    ../clib/microlib/longlong.c              0x00000000   Number         0  llsshr.o ABSOLUTE
    ../clib/microlib/printf/printf.c         0x00000000   Number         0  printfb.o ABSOLUTE
    ../clib/microlib/printf/printf.c         0x00000000   Number         0  printf0.o ABSOLUTE
    ../clib/microlib/printf/printf.c         0x00000000   Number         0  printf4.o ABSOLUTE
    ../clib/microlib/printf/printf.c         0x00000000   Number         0  printf3.o ABSOLUTE
    ../clib/microlib/printf/printf.c         0x00000000   Number         0  printf7.o ABSOLUTE
    ../clib/microlib/printf/printf.c         0x00000000   Number         0  printf5.o ABSOLUTE
    ../clib/microlib/printf/printf.c         0x00000000   Number         0  printfa.o ABSOLUTE
    ../clib/microlib/printf/printf.c         0x00000000   Number         0  printf6.o ABSOLUTE
    ../clib/microlib/printf/printf.c         0x00000000   Number         0  printf2.o ABSOLUTE
    ../clib/microlib/printf/printf.c         0x00000000   Number         0  printf8.o ABSOLUTE
    ../clib/microlib/printf/printf.c         0x00000000   Number         0  printf1.o ABSOLUTE
    ../clib/microlib/printf/stubs.s          0x00000000   Number         0  stubs.o ABSOLUTE
    ../clib/microlib/stdio/streams.c         0x00000000   Number         0  stdout.o ABSOLUTE
    ../clib/microlib/string/memcpy.c         0x00000000   Number         0  memcpya.o ABSOLUTE
    ../clib/microlib/string/memcpy.c         0x00000000   Number         0  memcpyb.o ABSOLUTE
    ../clib/microlib/string/memset.c         0x00000000   Number         0  memseta.o ABSOLUTE
    ../clib/microlib/string/strchr.c         0x00000000   Number         0  strchr.o ABSOLUTE
    ../clib/microlib/string/strcmp.c         0x00000000   Number         0  strcmp.o ABSOLUTE
    ../clib/microlib/string/strcpy.c         0x00000000   Number         0  strcpy.o ABSOLUTE
    ../clib/microlib/string/strlen.c         0x00000000   Number         0  strlen.o ABSOLUTE
    ../clib/microlib/string/strncpy.c        0x00000000   Number         0  strncpy.o ABSOLUTE
    ../clib/microlib/stubs.s                 0x00000000   Number         0  iusefp.o ABSOLUTE
    ../clib/microlib/unhosted.c              0x00000000   Number         0  uread4.o ABSOLUTE
    ../clib/microlib/unhosted.c              0x00000000   Number         0  uwrite4.o ABSOLUTE
    ../fplib/microlib/fpadd.c                0x00000000   Number         0  dadd.o ABSOLUTE
    ../fplib/microlib/fpdiv.c                0x00000000   Number         0  ddiv.o ABSOLUTE
    ../fplib/microlib/fpepilogue.c           0x00000000   Number         0  depilogue.o ABSOLUTE
    ../fplib/microlib/fpfix.c                0x00000000   Number         0  dfixul.o ABSOLUTE
    ../fplib/microlib/fpmul.c                0x00000000   Number         0  dmul.o ABSOLUTE
    ..\\library\\StdPeriphDriver\\CH57x_adc.c 0x00000000   Number         0  ch57x_adc.o ABSOLUTE
    ..\\library\\StdPeriphDriver\\CH57x_clk.c 0x00000000   Number         0  ch57x_clk.o ABSOLUTE
    ..\\library\\StdPeriphDriver\\CH57x_flash.c 0x00000000   Number         0  ch57x_flash.o ABSOLUTE
    ..\\library\\StdPeriphDriver\\CH57x_gpio.c 0x00000000   Number         0  ch57x_gpio.o ABSOLUTE
    ..\\library\\StdPeriphDriver\\CH57x_int.c 0x00000000   Number         0  ch57x_int.o ABSOLUTE
    ..\\library\\StdPeriphDriver\\CH57x_lcd.c 0x00000000   Number         0  ch57x_lcd.o ABSOLUTE
    ..\\library\\StdPeriphDriver\\CH57x_pwm.c 0x00000000   Number         0  ch57x_pwm.o ABSOLUTE
    ..\\library\\StdPeriphDriver\\CH57x_pwr.c 0x00000000   Number         0  ch57x_pwr.o ABSOLUTE
    ..\\library\\StdPeriphDriver\\CH57x_spi0.c 0x00000000   Number         0  ch57x_spi0.o ABSOLUTE
    ..\\library\\StdPeriphDriver\\CH57x_spi1.c 0x00000000   Number         0  ch57x_spi1.o ABSOLUTE
    ..\\library\\StdPeriphDriver\\CH57x_sys.c 0x00000000   Number         0  ch57x_sys.o ABSOLUTE
    ..\\library\\StdPeriphDriver\\CH57x_timer0.c 0x00000000   Number         0  ch57x_timer0.o ABSOLUTE
    ..\\library\\StdPeriphDriver\\CH57x_timer1.c 0x00000000   Number         0  ch57x_timer1.o ABSOLUTE
    ..\\library\\StdPeriphDriver\\CH57x_timer2.c 0x00000000   Number         0  ch57x_timer2.o ABSOLUTE
    ..\\library\\StdPeriphDriver\\CH57x_timer3.c 0x00000000   Number         0  ch57x_timer3.o ABSOLUTE
    ..\\library\\StdPeriphDriver\\CH57x_uart0.c 0x00000000   Number         0  ch57x_uart0.o ABSOLUTE
    ..\\library\\StdPeriphDriver\\CH57x_uart1.c 0x00000000   Number         0  ch57x_uart1.o ABSOLUTE
    ..\\library\\StdPeriphDriver\\CH57x_uart2.c 0x00000000   Number         0  ch57x_uart2.o ABSOLUTE
    ..\\library\\StdPeriphDriver\\CH57x_uart3.c 0x00000000   Number         0  ch57x_uart3.o ABSOLUTE
    ..\\library\\StdPeriphDriver\\CH57x_usbdev.c 0x00000000   Number         0  ch57x_usbdev.o ABSOLUTE
    ..\\library\\StdPeriphDriver\\CH57x_usbhostBase.c 0x00000000   Number         0  ch57x_usbhostbase.o ABSOLUTE
    ..\\library\\StdPeriphDriver\\CH57x_usbhostClass.c 0x00000000   Number         0  ch57x_usbhostclass.o ABSOLUTE
    ..\\mem\\BufferManage.c                  0x00000000   Number         0  buffermanage.o ABSOLUTE
    ..\\mem\\LoopList.c                      0x00000000   Number         0  looplist.o ABSOLUTE
    ..\\net\\net_dhcp.c                      0x00000000   Number         0  net_dhcp.o ABSOLUTE
    ..\\net\\net_dns.c                       0x00000000   Number         0  net_dns.o ABSOLUTE
    ..\\net\\net_init.c                      0x00000000   Number         0  net_init.o ABSOLUTE
    ..\\net\\net_tcp_client.c                0x00000000   Number         0  net_tcp_client.o ABSOLUTE
    ..\\net\\net_tcp_server.c                0x00000000   Number         0  net_tcp_server.o ABSOLUTE
    ..\\ufi_library\\CH579UFI.C              0x00000000   Number         0  ch579ufi.o ABSOLUTE
    ..\\user\\USARTlist.c                    0x00000000   Number         0  usartlist.o ABSOLUTE
    ..\\user\\data_forward.c                 0x00000000   Number         0  data_forward.o ABSOLUTE
    ..\\user\\led.c                          0x00000000   Number         0  led.o ABSOLUTE
    ..\\user\\main.c                         0x00000000   Number         0  main.o ABSOLUTE
    ..\\user\\sys_tick.c                     0x00000000   Number         0  sys_tick.o ABSOLUTE
    ..\\user\\time.c                         0x00000000   Number         0  time.o ABSOLUTE
    ..\\user\\uart.c                         0x00000000   Number         0  uart.o ABSOLUTE
    ..\library\Startup\startup_ARMCM0.s      0x00000000   Number         0  startup_armcm0.o ABSOLUTE
    ..\library\StdPeriphDriver\CH57x_adc.c   0x00000000   Number         0  ch57x_adc.o ABSOLUTE
    ..\library\StdPeriphDriver\CH57x_clk.c   0x00000000   Number         0  ch57x_clk.o ABSOLUTE
    ..\library\StdPeriphDriver\CH57x_flash.c 0x00000000   Number         0  ch57x_flash.o ABSOLUTE
    ..\library\StdPeriphDriver\CH57x_gpio.c  0x00000000   Number         0  ch57x_gpio.o ABSOLUTE
    ..\library\StdPeriphDriver\CH57x_int.c   0x00000000   Number         0  ch57x_int.o ABSOLUTE
    ..\library\StdPeriphDriver\CH57x_lcd.c   0x00000000   Number         0  ch57x_lcd.o ABSOLUTE
    ..\library\StdPeriphDriver\CH57x_pwm.c   0x00000000   Number         0  ch57x_pwm.o ABSOLUTE
    ..\library\StdPeriphDriver\CH57x_pwr.c   0x00000000   Number         0  ch57x_pwr.o ABSOLUTE
    ..\library\StdPeriphDriver\CH57x_spi0.c  0x00000000   Number         0  ch57x_spi0.o ABSOLUTE
    ..\library\StdPeriphDriver\CH57x_spi1.c  0x00000000   Number         0  ch57x_spi1.o ABSOLUTE
    ..\library\StdPeriphDriver\CH57x_sys.c   0x00000000   Number         0  ch57x_sys.o ABSOLUTE
    ..\library\StdPeriphDriver\CH57x_timer0.c 0x00000000   Number         0  ch57x_timer0.o ABSOLUTE
    ..\library\StdPeriphDriver\CH57x_timer1.c 0x00000000   Number         0  ch57x_timer1.o ABSOLUTE
    ..\library\StdPeriphDriver\CH57x_timer2.c 0x00000000   Number         0  ch57x_timer2.o ABSOLUTE
    ..\library\StdPeriphDriver\CH57x_timer3.c 0x00000000   Number         0  ch57x_timer3.o ABSOLUTE
    ..\library\StdPeriphDriver\CH57x_uart0.c 0x00000000   Number         0  ch57x_uart0.o ABSOLUTE
    ..\library\StdPeriphDriver\CH57x_uart1.c 0x00000000   Number         0  ch57x_uart1.o ABSOLUTE
    ..\library\StdPeriphDriver\CH57x_uart2.c 0x00000000   Number         0  ch57x_uart2.o ABSOLUTE
    ..\library\StdPeriphDriver\CH57x_uart3.c 0x00000000   Number         0  ch57x_uart3.o ABSOLUTE
    ..\library\StdPeriphDriver\CH57x_usbdev.c 0x00000000   Number         0  ch57x_usbdev.o ABSOLUTE
    ..\library\StdPeriphDriver\CH57x_usbhostBase.c 0x00000000   Number         0  ch57x_usbhostbase.o ABSOLUTE
    ..\library\StdPeriphDriver\CH57x_usbhostClass.c 0x00000000   Number         0  ch57x_usbhostclass.o ABSOLUTE
    ..\mem\BufferManage.c                    0x00000000   Number         0  buffermanage.o ABSOLUTE
    ..\mem\LoopList.c                        0x00000000   Number         0  looplist.o ABSOLUTE
    ..\net\net_dhcp.c                        0x00000000   Number         0  net_dhcp.o ABSOLUTE
    ..\net\net_dns.c                         0x00000000   Number         0  net_dns.o ABSOLUTE
    ..\net\net_init.c                        0x00000000   Number         0  net_init.o ABSOLUTE
    ..\net\net_tcp_client.c                  0x00000000   Number         0  net_tcp_client.o ABSOLUTE
    ..\net\net_tcp_server.c                  0x00000000   Number         0  net_tcp_server.o ABSOLUTE
    ..\ufi_library\CH579UFI.C                0x00000000   Number         0  ch579ufi.o ABSOLUTE
    ..\user\USARTlist.c                      0x00000000   Number         0  usartlist.o ABSOLUTE
    ..\user\data_forward.c                   0x00000000   Number         0  data_forward.o ABSOLUTE
    ..\user\led.c                            0x00000000   Number         0  led.o ABSOLUTE
    ..\user\main.c                           0x00000000   Number         0  main.o ABSOLUTE
    ..\user\sys_tick.c                       0x00000000   Number         0  sys_tick.o ABSOLUTE
    ..\user\time.c                           0x00000000   Number         0  time.o ABSOLUTE
    ..\user\uart.c                           0x00000000   Number         0  uart.o ABSOLUTE
    CH579MAI.C                               0x00000000   Number         0  CH579MAI.o ABSOLUTE
    PUB\\lwip\\src\\netif\\ethernetif.c      0x00000000   Number         0  ethernetif.o ABSOLUTE
    PUB\lwip\src\core\init.c                 0x00000000   Number         0  init.o ABSOLUTE
    PUB\lwip\src\core\ipv4\icmp.c            0x00000000   Number         0  icmp.o ABSOLUTE
    PUB\lwip\src\core\ipv4\inet.c            0x00000000   Number         0  inet.o ABSOLUTE
    PUB\lwip\src\core\ipv4\inet_chksum.c     0x00000000   Number         0  inet_chksum.o ABSOLUTE
    PUB\lwip\src\core\ipv4\ip.c              0x00000000   Number         0  ip.o ABSOLUTE
    PUB\lwip\src\core\ipv4\ip_addr.c         0x00000000   Number         0  ip_addr.o ABSOLUTE
    PUB\lwip\src\core\ipv4\ip_frag.c         0x00000000   Number         0  ip_frag.o ABSOLUTE
    PUB\lwip\src\core\mem.c                  0x00000000   Number         0  mem.o ABSOLUTE
    PUB\lwip\src\core\memp.c                 0x00000000   Number         0  memp.o ABSOLUTE
    PUB\lwip\src\core\netif.c                0x00000000   Number         0  netif.o ABSOLUTE
    PUB\lwip\src\core\pbuf.c                 0x00000000   Number         0  pbuf.o ABSOLUTE
    PUB\lwip\src\core\raw.c                  0x00000000   Number         0  raw.o ABSOLUTE
    PUB\lwip\src\core\tcp.c                  0x00000000   Number         0  tcp.o ABSOLUTE
    PUB\lwip\src\core\tcp_in.c               0x00000000   Number         0  tcp_in.o ABSOLUTE
    PUB\lwip\src\core\tcp_out.c              0x00000000   Number         0  tcp_out.o ABSOLUTE
    PUB\lwip\src\core\udp.c                  0x00000000   Number         0  udp.o ABSOLUTE
    PUB\lwip\src\netif\etharp.c              0x00000000   Number         0  etharp.o ABSOLUTE
    PUB\lwip\src\netif\ethernetif.c          0x00000000   Number         0  ethernetif.o ABSOLUTE
    PUB\user\ch57xnet_dhcp.c                 0x00000000   Number         0  ch57xnet_dhcp.o ABSOLUTE
    PUB\user\ch57xnet_nds.c                  0x00000000   Number         0  ch57xnet_nds.o ABSOLUTE
    PUB\user\ch57xsock.c                     0x00000000   Number         0  ch57xsock.o ABSOLUTE
    PUB\user\hal.c                           0x00000000   Number         0  hal.o ABSOLUTE
    PUB\user\ipcheck.c                       0x00000000   Number         0  ipcheck.o ABSOLUTE
    SRC\ETH.C                                0x00000000   Number         0  eth.o ABSOLUTE
    SRC\\ETH.C                               0x00000000   Number         0  eth.o ABSOLUTE
    cdrcmple.s                               0x00000000   Number         0  cdrcmple.o ABSOLUTE
    dc.s                                     0x00000000   Number         0  dc.o ABSOLUTE
    handlers.s                               0x00000000   Number         0  handlers.o ABSOLUTE
    init.s                                   0x00000000   Number         0  init.o ABSOLUTE
    .ARM.Collect$$$$00000000                 0x00000090   Section        0  entry.o(.ARM.Collect$$$$00000000)
    .ARM.Collect$$$$00000001                 0x00000090   Section        4  entry2.o(.ARM.Collect$$$$00000001)
    .ARM.Collect$$$$00000004                 0x00000094   Section        4  entry5.o(.ARM.Collect$$$$00000004)
    .ARM.Collect$$$$00000008                 0x00000098   Section        0  entry7b.o(.ARM.Collect$$$$00000008)
    .ARM.Collect$$$$0000000A                 0x00000098   Section        0  entry8b.o(.ARM.Collect$$$$0000000A)
    .ARM.Collect$$$$0000000B                 0x00000098   Section        8  entry9a.o(.ARM.Collect$$$$0000000B)
    .ARM.Collect$$$$0000000D                 0x000000a0   Section        0  entry10a.o(.ARM.Collect$$$$0000000D)
    .ARM.Collect$$$$0000000F                 0x000000a0   Section        0  entry11a.o(.ARM.Collect$$$$0000000F)
    .ARM.Collect$$$$00002712                 0x000000a0   Section        4  entry2.o(.ARM.Collect$$$$00002712)
    __lit__00000000                          0x000000a0   Data           4  entry2.o(.ARM.Collect$$$$00002712)
    .text                                    0x000000a4   Section       28  startup_armcm0.o(.text)
    .text                                    0x000000c0   Section        0  uidiv.o(.text)
    .text                                    0x000000ec   Section        0  idiv.o(.text)
    .text                                    0x00000114   Section        0  memcpya.o(.text)
    .text                                    0x00000138   Section        0  memseta.o(.text)
    .text                                    0x0000015c   Section        0  strcpy.o(.text)
    .text                                    0x0000016e   Section        0  uread4.o(.text)
    .text                                    0x00000182   Section        0  uwrite4.o(.text)
    .text                                    0x00000194   Section        0  uldiv.o(.text)
    .text                                    0x000001f4   Section       36  init.o(.text)
    .text                                    0x00000218   Section        0  llshl.o(.text)
    .text                                    0x00000238   Section        0  llushr.o(.text)
    .text                                    0x0000025a   Section        0  __dczerorl2.o(.text)
    i.CH57xFileCorrectTCBPcb                 0x000002b0   Section        0  ch57xsock.o(i.CH57xFileCorrectTCBPcb)
    i.CH57xIPSetSocketRecvInit               0x00000314   Section        0  ch57xsock.o(i.CH57xIPSetSocketRecvInit)
    i.CH57xMACRxSuccHandle                   0x0000034c   Section        0  ethernetif.o(i.CH57xMACRxSuccHandle)
    i.CH57xNET_ConfigKeepLive                0x000003cc   Section        0  ch57xsock.o(i.CH57xNET_ConfigKeepLive)
    i.CH57xNET_ConfigLIB                     0x000003e0   Section        0  ch57xsock.o(i.CH57xNET_ConfigLIB)
    i.CH57xNET_ETHIsr                        0x00000400   Section        0  ch57xsock.o(i.CH57xNET_ETHIsr)
    i.CH57xNET_GetGlobalInt                  0x00000408   Section        0  ch57xsock.o(i.CH57xNET_GetGlobalInt)
    i.CH57xNET_GetPHYStatus                  0x0000041c   Section        0  ch57xsock.o(i.CH57xNET_GetPHYStatus)
    i.CH57xNET_GetSocketInt                  0x00000428   Section        0  ch57xsock.o(i.CH57xNET_GetSocketInt)
    i.CH57xNET_GetVer                        0x0000044c   Section        0  ch57xsock.o(i.CH57xNET_GetVer)
    i.CH57xNET_HandleGlobalInt               0x00000450   Section        0  main.o(i.CH57xNET_HandleGlobalInt)
    i.CH57xNET_Init                          0x00000498   Section        0  ch57xsock.o(i.CH57xNET_Init)
    i.CH57xNET_LibInit                       0x000005cc   Section        0  net_init.o(i.CH57xNET_LibInit)
    i.CH57xNET_MainTask                      0x0000062c   Section        0  ch57xsock.o(i.CH57xNET_MainTask)
    i.CH57xNET_ModifyRecvBuf                 0x00000658   Section        0  ch57xsock.o(i.CH57xNET_ModifyRecvBuf)
    i.CH57xNET_QueryGlobalInt                0x00000694   Section        0  ch57xsock.o(i.CH57xNET_QueryGlobalInt)
    i.CH57xNET_SocketClose                   0x000006d0   Section        0  ch57xsock.o(i.CH57xNET_SocketClose)
    i.CH57xNET_SocketCreat                   0x00000724   Section        0  ch57xsock.o(i.CH57xNET_SocketCreat)
    i.CH57xNET_SocketListen                  0x000008b8   Section        0  ch57xsock.o(i.CH57xNET_SocketListen)
    i.CH57xNET_SocketRecv                    0x00000908   Section        0  ch57xsock.o(i.CH57xNET_SocketRecv)
    i.CH57xNET_SocketRecvLen                 0x00000a98   Section        0  ch57xsock.o(i.CH57xNET_SocketRecvLen)
    i.CH57xNET_SocketSend                    0x00000ab0   Section        0  ch57xsock.o(i.CH57xNET_SocketSend)
    i.CH57xNET_SocketSetKeepLive             0x00000af0   Section        0  ch57xsock.o(i.CH57xNET_SocketSetKeepLive)
    i.CH57xNET_TimeIsr                       0x00000b20   Section        0  ch57xsock.o(i.CH57xNET_TimeIsr)
    i.CH57xScokedIntHandle                   0x00000b64   Section        0  ch57xsock.o(i.CH57xScokedIntHandle)
    i.CH57xSocketInit                        0x00000bac   Section        0  ch57xsock.o(i.CH57xSocketInit)
    i.CH57xSocketTCPReceive                  0x00000bdc   Section        0  ch57xsock.o(i.CH57xSocketTCPReceive)
    i.CH57xTCPError                          0x00000ce8   Section        0  ch57xsock.o(i.CH57xTCPError)
    i.CH57xTCPServerAccept                   0x00000cec   Section        0  ch57xsock.o(i.CH57xTCPServerAccept)
    i.CloseIPRAWConnect                      0x00000d84   Section        0  ch57xsock.o(i.CloseIPRAWConnect)
    i.CloseTcpPCB                            0x00000db4   Section        0  ch57xsock.o(i.CloseTcpPCB)
    i.CloseUpdConnect                        0x00000e08   Section        0  ch57xsock.o(i.CloseUpdConnect)
    i.DataForward_CanSend                    0x00000e38   Section        0  data_forward.o(i.DataForward_CanSend)
    i.DataForward_DequeueFrame               0x00000e58   Section        0  data_forward.o(i.DataForward_DequeueFrame)
    DataForward_DequeueFrame                 0x00000e59   Thumb Code    72  data_forward.o(i.DataForward_DequeueFrame)
    i.DataForward_EnqueueFrame               0x00000ea8   Section        0  data_forward.o(i.DataForward_EnqueueFrame)
    DataForward_EnqueueFrame                 0x00000ea9   Thumb Code   164  data_forward.o(i.DataForward_EnqueueFrame)
    i.DataForward_FrameComplete              0x00000f54   Section        0  data_forward.o(i.DataForward_FrameComplete)
    i.DataForward_GetPeerGroupMask           0x00000f9c   Section        0  data_forward.o(i.DataForward_GetPeerGroupMask)
    i.DataForward_GetPortGroup               0x00000fdc   Section        0  data_forward.o(i.DataForward_GetPortGroup)
    i.DataForward_GetTick                    0x00001000   Section        0  data_forward.o(i.DataForward_GetTick)
    i.DataForward_Init                       0x0000100c   Section        0  data_forward.o(i.DataForward_Init)
    i.DataForward_Process                    0x000010a0   Section        0  data_forward.o(i.DataForward_Process)
    i.DataForward_RecvByte                   0x000010e8   Section        0  data_forward.o(i.DataForward_RecvByte)
    i.DataForward_RecvFromEth                0x0000113c   Section        0  data_forward.o(i.DataForward_RecvFromEth)
    i.DataForward_ResetRecvState             0x000011c8   Section        0  data_forward.o(i.DataForward_ResetRecvState)
    i.DataForward_SendFrame                  0x000011fc   Section        0  data_forward.o(i.DataForward_SendFrame)
    i.DataForward_SendFrameToPort            0x0000125c   Section        0  data_forward.o(i.DataForward_SendFrameToPort)
    DataForward_SendFrameToPort              0x0000125d   Thumb Code   250  data_forward.o(i.DataForward_SendFrameToPort)
    i.DataForward_UpdateActivePort           0x00001368   Section        0  data_forward.o(i.DataForward_UpdateActivePort)
    i.ETHInit                                0x00001390   Section        0  eth.o(i.ETHInit)
    i.ETHRec                                 0x0000149c   Section        0  eth.o(i.ETHRec)
    i.ETHSend                                0x000014fc   Section        0  eth.o(i.ETHSend)
    i.ETH_IRQHandler                         0x00001558   Section        0  net_init.o(i.ETH_IRQHandler)
    i.ETH_IRQ_Deal                           0x00001560   Section        0  eth.o(i.ETH_IRQ_Deal)
    i.ErrorEncode                            0x00001608   Section        0  ch57xsock.o(i.ErrorEncode)
    i.GPIOA_ModeCfg                          0x00001620   Section        0  ch57x_gpio.o(i.GPIOA_ModeCfg)
    i.GPIOB_ModeCfg                          0x000016b8   Section        0  ch57x_gpio.o(i.GPIOB_ModeCfg)
    i.GPIOPinRemap                           0x00001750   Section        0  ch57x_gpio.o(i.GPIOPinRemap)
    i.GetMACAddress                          0x00001770   Section        0  ch57x_flash.o(i.GetMACAddress)
    i.GetMacAddr                             0x0000178c   Section        0  net_init.o(i.GetMacAddr)
    i.GetSysClock                            0x000017b0   Section        0  ch57x_clk.o(i.GetSysClock)
    i.IPCheckParaInit                        0x00001800   Section        0  ipcheck.o(i.IPCheckParaInit)
    i.IPCheckTmr                             0x00001828   Section        0  ipcheck.o(i.IPCheckTmr)
    i.IPConflictHandle                       0x00001880   Section        0  ipcheck.o(i.IPConflictHandle)
    i.InitCH57xMAC                           0x000018b0   Section        0  hal.o(i.InitCH57xMAC)
    i.LwIPPeriodicHandle                     0x000018d4   Section        0  ethernetif.o(i.LwIPPeriodicHandle)
    i.LwipArpCheck                           0x000019c0   Section        0  ch57xsock.o(i.LwipArpCheck)
    i.LwipRemoveTcpPcb                       0x000019cc   Section        0  ch57xsock.o(i.LwipRemoveTcpPcb)
    i.LwipTCPPollCallBack                    0x00001a3c   Section        0  ch57xsock.o(i.LwipTCPPollCallBack)
    i.LwipTCPSendCallBack                    0x00001a40   Section        0  ch57xsock.o(i.LwipTCPSendCallBack)
    i.LwipUnreachPort                        0x00001a78   Section        0  ch57xsock.o(i.LwipUnreachPort)
    i.MemShortCopy                           0x00001a94   Section        0  ch57xsock.o(i.MemShortCopy)
    i.NMI_Handler                            0x00001aac   Section        0  ch57x_int.o(i.NMI_Handler)
    i.NVIC_EnableIRQ                         0x00001b44   Section        0  uart.o(i.NVIC_EnableIRQ)
    NVIC_EnableIRQ                           0x00001b45   Thumb Code    14  uart.o(i.NVIC_EnableIRQ)
    i.NVIC_SetPriority                       0x00001b58   Section        0  uart.o(i.NVIC_SetPriority)
    NVIC_SetPriority                         0x00001b59   Thumb Code   110  uart.o(i.NVIC_SetPriority)
    i.NVIC_SetPriority                       0x00001bd0   Section        0  time.o(i.NVIC_SetPriority)
    NVIC_SetPriority                         0x00001bd1   Thumb Code   110  time.o(i.NVIC_SetPriority)
    i.NVIC_SetPriority                       0x00001c48   Section        0  net_init.o(i.NVIC_SetPriority)
    NVIC_SetPriority                         0x00001c49   Thumb Code   110  net_init.o(i.NVIC_SetPriority)
    i.PWR_UnitModCfg                         0x00001cc0   Section        0  ch57x_pwr.o(i.PWR_UnitModCfg)
    i.PortToMask                             0x00001d60   Section        0  data_forward.o(i.PortToMask)
    PortToMask                               0x00001d61   Thumb Code    42  data_forward.o(i.PortToMask)
    i.PowerMonitor                           0x00001d8c   Section        0  ch57x_pwr.o(i.PowerMonitor)
    i.QuaryEthRxDma                          0x00001dec   Section        0  ethernetif.o(i.QuaryEthRxDma)
    i.QueryPingEnable                        0x00001e58   Section        0  ch57xsock.o(i.QueryPingEnable)
    i.ReadPHYReg                             0x00001e64   Section        0  eth.o(i.ReadPHYReg)
    i.RemoveTimeWaiTCP                       0x00001e78   Section        0  tcp.o(i.RemoveTimeWaiTCP)
    i.SYS_ResetExecute                       0x00001eb0   Section        0  ch57x_sys.o(i.SYS_ResetExecute)
    i.SelIPARPSend                           0x00001ed0   Section        0  ipcheck.o(i.SelIPARPSend)
    i.SetSysClock                            0x00001ef0   Section        0  ch57x_clk.o(i.SetSysClock)
    i.SetupNetif                             0x00002050   Section        0  ethernetif.o(i.SetupNetif)
    i.SocketIPRAWReceive                     0x000020e4   Section        0  ch57xsock.o(i.SocketIPRAWReceive)
    i.SocketIPRawSend                        0x00002190   Section        0  ch57xsock.o(i.SocketIPRawSend)
    i.SocketTcpSend                          0x0000225c   Section        0  ch57xsock.o(i.SocketTcpSend)
    i.SocketUdpReceive                       0x00002360   Section        0  ch57xsock.o(i.SocketUdpReceive)
    i.SocketUdpSend                          0x00002418   Section        0  ch57xsock.o(i.SocketUdpSend)
    i.SysTick_Handler                        0x000024d8   Section        0  sys_tick.o(i.SysTick_Handler)
    i.SystemInit                             0x000024f0   Section        0  ch57x_clk.o(i.SystemInit)
    i.TMR0_IRQHandler                        0x0000251c   Section        0  time.o(i.TMR0_IRQHandler)
    i.TMR0_TimerInit                         0x00002588   Section        0  ch57x_timer0.o(i.TMR0_TimerInit)
    i.UART0_BaudRateCfg                      0x0000259c   Section        0  ch57x_uart0.o(i.UART0_BaudRateCfg)
    i.UART0_DefInit                          0x000025c8   Section        0  ch57x_uart0.o(i.UART0_DefInit)
    i.UART0_INTCfg                           0x000025ec   Section        0  ch57x_uart0.o(i.UART0_INTCfg)
    i.UART0_IRQHandler                       0x00002618   Section        0  uart.o(i.UART0_IRQHandler)
    i.UART1_BaudRateCfg                      0x00002680   Section        0  ch57x_uart1.o(i.UART1_BaudRateCfg)
    i.UART1_DefInit                          0x000026ac   Section        0  ch57x_uart1.o(i.UART1_DefInit)
    i.UART1_INTCfg                           0x000026d0   Section        0  ch57x_uart1.o(i.UART1_INTCfg)
    i.UART1_IRQHandler                       0x000026fc   Section        0  uart.o(i.UART1_IRQHandler)
    i.UART2_BaudRateCfg                      0x00002764   Section        0  ch57x_uart2.o(i.UART2_BaudRateCfg)
    i.UART2_DefInit                          0x00002790   Section        0  ch57x_uart2.o(i.UART2_DefInit)
    i.UART2_INTCfg                           0x000027b4   Section        0  ch57x_uart2.o(i.UART2_INTCfg)
    i.UART2_IRQHandler                       0x000027e0   Section        0  uart.o(i.UART2_IRQHandler)
    i.UART3_BaudRateCfg                      0x00002848   Section        0  ch57x_uart3.o(i.UART3_BaudRateCfg)
    i.UART3_DefInit                          0x00002874   Section        0  ch57x_uart3.o(i.UART3_DefInit)
    i.UART3_INTCfg                           0x00002898   Section        0  ch57x_uart3.o(i.UART3_INTCfg)
    i.UART3_IRQHandler                       0x000028c4   Section        0  uart.o(i.UART3_IRQHandler)
    i.__0printf$8                            0x0000292c   Section        0  printf8.o(i.__0printf$8)
    i.__ARM_common_switch8                   0x0000294c   Section        0  tcp.o(i.__ARM_common_switch8)
    i.__scatterload_copy                     0x00002966   Section       14  handlers.o(i.__scatterload_copy)
    i.__scatterload_null                     0x00002974   Section        2  handlers.o(i.__scatterload_null)
    i.__scatterload_zeroinit                 0x00002976   Section       14  handlers.o(i.__scatterload_zeroinit)
    i._printf_core                           0x00002984   Section        0  printf8.o(i._printf_core)
    _printf_core                             0x00002985   Thumb Code  1020  printf8.o(i._printf_core)
    i._printf_post_padding                   0x00002dac   Section        0  printf8.o(i._printf_post_padding)
    _printf_post_padding                     0x00002dad   Thumb Code    32  printf8.o(i._printf_post_padding)
    i._printf_pre_padding                    0x00002dcc   Section        0  printf8.o(i._printf_pre_padding)
    _printf_pre_padding                      0x00002dcd   Thumb Code    44  printf8.o(i._printf_pre_padding)
    i.dhcp_arp_reply                         0x00002df8   Section        0  ch57xnet_dhcp.o(i.dhcp_arp_reply)
    i.dhcp_create_request                    0x00002e20   Section        0  ch57xnet_dhcp.o(i.dhcp_create_request)
    dhcp_create_request                      0x00002e21   Thumb Code   298  ch57xnet_dhcp.o(i.dhcp_create_request)
    i.dhcp_decline                           0x00002f54   Section        0  ch57xnet_dhcp.o(i.dhcp_decline)
    dhcp_decline                             0x00002f55   Thumb Code   184  ch57xnet_dhcp.o(i.dhcp_decline)
    i.dhcp_delete_request                    0x00003010   Section        0  ch57xnet_dhcp.o(i.dhcp_delete_request)
    dhcp_delete_request                      0x00003011   Thumb Code    30  ch57xnet_dhcp.o(i.dhcp_delete_request)
    i.dhcp_option                            0x0000302e   Section        0  ch57xnet_dhcp.o(i.dhcp_option)
    dhcp_option                              0x0000302f   Thumb Code    32  ch57xnet_dhcp.o(i.dhcp_option)
    i.dhcp_option_byte                       0x0000304e   Section        0  ch57xnet_dhcp.o(i.dhcp_option_byte)
    dhcp_option_byte                         0x0000304f   Thumb Code    16  ch57xnet_dhcp.o(i.dhcp_option_byte)
    i.dhcp_option_long                       0x0000305e   Section        0  ch57xnet_dhcp.o(i.dhcp_option_long)
    dhcp_option_long                         0x0000305f   Thumb Code    66  ch57xnet_dhcp.o(i.dhcp_option_long)
    i.dhcp_option_mac                        0x000030a0   Section        0  ch57xnet_dhcp.o(i.dhcp_option_mac)
    dhcp_option_mac                          0x000030a1   Thumb Code   116  ch57xnet_dhcp.o(i.dhcp_option_mac)
    i.dhcp_option_trailer                    0x00003114   Section        0  ch57xnet_dhcp.o(i.dhcp_option_trailer)
    dhcp_option_trailer                      0x00003115   Thumb Code    48  ch57xnet_dhcp.o(i.dhcp_option_trailer)
    i.dhcp_set_state                         0x00003144   Section        0  ch57xnet_dhcp.o(i.dhcp_set_state)
    dhcp_set_state                           0x00003145   Thumb Code    14  ch57xnet_dhcp.o(i.dhcp_set_state)
    i.etharp_arp_input                       0x00003154   Section        0  etharp.o(i.etharp_arp_input)
    i.etharp_ip_input                        0x00003290   Section        0  etharp.o(i.etharp_ip_input)
    i.etharp_output                          0x000032bc   Section        0  etharp.o(i.etharp_output)
    i.etharp_query                           0x00003388   Section        0  etharp.o(i.etharp_query)
    i.etharp_raw                             0x00003438   Section        0  etharp.o(i.etharp_raw)
    etharp_raw                               0x00003439   Thumb Code   176  etharp.o(i.etharp_raw)
    i.etharp_request                         0x000034f0   Section        0  etharp.o(i.etharp_request)
    i.etharp_send_ip                         0x00003514   Section        0  etharp.o(i.etharp_send_ip)
    etharp_send_ip                           0x00003515   Thumb Code    52  etharp.o(i.etharp_send_ip)
    i.etharp_tmr                             0x00003548   Section        0  etharp.o(i.etharp_tmr)
    i.ethernet_input                         0x00003590   Section        0  etharp.o(i.ethernet_input)
    i.ethernetif_init                        0x000035f4   Section        0  ethernetif.o(i.ethernetif_init)
    i.ethernetif_input                       0x00003638   Section        0  ethernetif.o(i.ethernetif_input)
    i.find_entry                             0x000036a8   Section        0  etharp.o(i.find_entry)
    find_entry                               0x000036a9   Thumb Code   264  etharp.o(i.find_entry)
    i.fputc                                  0x000037b8   Section        0  uart.o(i.fputc)
    i.htonl                                  0x000037cc   Section        0  inet.o(i.htonl)
    i.htons                                  0x000037d0   Section        0  inet.o(i.htons)
    i.icmp_dest_unreach                      0x000037d4   Section        0  icmp.o(i.icmp_dest_unreach)
    i.icmp_input                             0x000037e0   Section        0  icmp.o(i.icmp_input)
    i.icmp_send_response                     0x000039d4   Section        0  icmp.o(i.icmp_send_response)
    icmp_send_response                       0x000039d5   Thumb Code   106  icmp.o(i.icmp_send_response)
    i.inet_chksum                            0x00003a3e   Section        0  inet_chksum.o(i.inet_chksum)
    i.inet_chksum_pbuf                       0x00003a4a   Section        0  inet_chksum.o(i.inet_chksum_pbuf)
    i.inet_chksum_pseudo                     0x00003a88   Section        0  inet_chksum.o(i.inet_chksum_pseudo)
    i.ip_addr_isbroadcast                    0x00003b00   Section        0  ip_addr.o(i.ip_addr_isbroadcast)
    i.ip_frag                                0x00003b3a   Section        0  ip_frag.o(i.ip_frag)
    i.ip_input                               0x00003c94   Section        0  ip.o(i.ip_input)
    i.ip_output                              0x00003ee0   Section        0  ip.o(i.ip_output)
    i.ip_output_if                           0x00003f14   Section        0  ip.o(i.ip_output_if)
    i.ip_route                               0x00004020   Section        0  ip.o(i.ip_route)
    i.low_level_init                         0x00004074   Section        0  ethernetif.o(i.low_level_init)
    i.low_level_input                        0x00004130   Section        0  ethernetif.o(i.low_level_input)
    low_level_input                          0x00004131   Thumb Code   198  ethernetif.o(i.low_level_input)
    i.low_level_output                       0x00004208   Section        0  ethernetif.o(i.low_level_output)
    low_level_output                         0x00004209   Thumb Code   140  ethernetif.o(i.low_level_output)
    i.lwip_init                              0x000042ac   Section        0  init.o(i.lwip_init)
    i.lwip_standard_chksum                   0x000042c8   Section        0  inet_chksum.o(i.lwip_standard_chksum)
    lwip_standard_chksum                     0x000042c9   Thumb Code    60  inet_chksum.o(i.lwip_standard_chksum)
    i.mDelaymS                               0x00004304   Section        0  ch57x_sys.o(i.mDelaymS)
    i.mDelayuS                               0x0000431e   Section        0  ch57x_sys.o(i.mDelayuS)
    i.main                                   0x00004340   Section        0  main.o(i.main)
    i.mem_free                               0x000043ac   Section        0  mem.o(i.mem_free)
    i.mem_init                               0x000043d8   Section        0  mem.o(i.mem_init)
    i.mem_malloc                             0x00004428   Section        0  mem.o(i.mem_malloc)
    i.mem_realloc                            0x000044dc   Section        0  mem.o(i.mem_realloc)
    i.memp_free                              0x000045b4   Section        0  memp.o(i.memp_free)
    i.memp_init                              0x000045c8   Section        0  memp.o(i.memp_init)
    i.memp_malloc                            0x00004618   Section        0  memp.o(i.memp_malloc)
    i.net_dns_loop                           0x00004634   Section        0  net_dns.o(i.net_dns_loop)
    i.net_dns_socket_close                   0x00004680   Section        0  net_dns.o(i.net_dns_socket_close)
    i.net_init                               0x000046a8   Section        0  net_init.o(i.net_init)
    i.net_initkeeplive                       0x00004718   Section        0  net_init.o(i.net_initkeeplive)
    i.net_tcp_server_close                   0x00004734   Section        0  net_tcp_server.o(i.net_tcp_server_close)
    i.net_tcp_server_creat_socket            0x00004748   Section        0  net_tcp_server.o(i.net_tcp_server_creat_socket)
    i.net_tcp_server_data                    0x00004804   Section        0  net_tcp_server.o(i.net_tcp_server_data)
    i.net_tcp_server_send                    0x00004914   Section        0  net_tcp_server.o(i.net_tcp_server_send)
    i.netif_add                              0x00004974   Section        0  netif.o(i.netif_add)
    i.netif_is_up                            0x000049bc   Section        0  netif.o(i.netif_is_up)
    i.netif_set_addr                         0x000049c6   Section        0  netif.o(i.netif_set_addr)
    i.netif_set_default                      0x000049e4   Section        0  netif.o(i.netif_set_default)
    i.netif_set_gw                           0x000049f0   Section        0  netif.o(i.netif_set_gw)
    i.netif_set_ipaddr                       0x00004a08   Section        0  netif.o(i.netif_set_ipaddr)
    i.netif_set_netmask                      0x00004a8c   Section        0  netif.o(i.netif_set_netmask)
    i.ntohl                                  0x00004aa2   Section        0  inet.o(i.ntohl)
    i.ntohs                                  0x00004aa6   Section        0  inet.o(i.ntohs)
    i.pbuf_alloc                             0x00004aac   Section        0  pbuf.o(i.pbuf_alloc)
    i.pbuf_cat                               0x00004bc0   Section        0  pbuf.o(i.pbuf_cat)
    i.pbuf_chain                             0x00004be8   Section        0  pbuf.o(i.pbuf_chain)
    i.pbuf_clen                              0x00004bf8   Section        0  pbuf.o(i.pbuf_clen)
    i.pbuf_copy                              0x00004c0a   Section        0  pbuf.o(i.pbuf_copy)
    i.pbuf_free                              0x00004c9e   Section        0  pbuf.o(i.pbuf_free)
    i.pbuf_header                            0x00004ce2   Section        0  pbuf.o(i.pbuf_header)
    i.pbuf_realloc                           0x00004d48   Section        0  pbuf.o(i.pbuf_realloc)
    i.pbuf_ref                               0x00004d9a   Section        0  pbuf.o(i.pbuf_ref)
    i.phy_change                             0x00004da8   Section        0  ch57xsock.o(i.phy_change)
    i.plug_holes                             0x00004dc4   Section        0  mem.o(i.plug_holes)
    plug_holes                               0x00004dc5   Thumb Code    80  mem.o(i.plug_holes)
    i.raw_bind                               0x00004e18   Section        0  raw.o(i.raw_bind)
    i.raw_connect                            0x00004e30   Section        0  raw.o(i.raw_connect)
    i.raw_input                              0x00004e48   Section        0  raw.o(i.raw_input)
    i.raw_new                                0x00004ebc   Section        0  raw.o(i.raw_new)
    i.raw_recv                               0x00004ee8   Section        0  raw.o(i.raw_recv)
    i.raw_remove                             0x00004ef0   Section        0  raw.o(i.raw_remove)
    i.raw_send                               0x00004f24   Section        0  raw.o(i.raw_send)
    i.raw_sendto                             0x00004f2e   Section        0  raw.o(i.raw_sendto)
    i.tcp_abandon                            0x00004fc0   Section        0  tcp.o(i.tcp_abandon)
    i.tcp_accept                             0x00005068   Section        0  tcp.o(i.tcp_accept)
    i.tcp_accept_null                        0x0000506c   Section        0  tcp.o(i.tcp_accept_null)
    tcp_accept_null                          0x0000506d   Thumb Code     6  tcp.o(i.tcp_accept_null)
    i.tcp_alloc                              0x00005074   Section        0  tcp.o(i.tcp_alloc)
    i.tcp_arg                                0x00005188   Section        0  tcp.o(i.tcp_arg)
    i.tcp_bind                               0x0000518c   Section        0  tcp.o(i.tcp_bind)
    i.tcp_close                              0x00005288   Section        0  tcp.o(i.tcp_close)
    i.tcp_eff_send_mss                       0x0000533c   Section        0  tcp.o(i.tcp_eff_send_mss)
    i.tcp_enqueue                            0x00005360   Section        0  tcp_out.o(i.tcp_enqueue)
    i.tcp_err                                0x00005738   Section        0  tcp.o(i.tcp_err)
    i.tcp_fasttmr                            0x00005740   Section        0  tcp.o(i.tcp_fasttmr)
    i.tcp_input                              0x000057a8   Section        0  tcp_in.o(i.tcp_input)
    i.tcp_keepalive                          0x00005b78   Section        0  tcp_out.o(i.tcp_keepalive)
    i.tcp_listen_input                       0x00005bd4   Section        0  tcp_in.o(i.tcp_listen_input)
    tcp_listen_input                         0x00005bd5   Thumb Code   242  tcp_in.o(i.tcp_listen_input)
    i.tcp_listen_with_backlog                0x00005cd0   Section        0  tcp.o(i.tcp_listen_with_backlog)
    i.tcp_new                                0x00005d54   Section        0  tcp.o(i.tcp_new)
    i.tcp_new_port                           0x00005d60   Section        0  tcp.o(i.tcp_new_port)
    tcp_new_port                             0x00005d61   Thumb Code    84  tcp.o(i.tcp_new_port)
    i.tcp_next_iss                           0x00005dbc   Section        0  tcp.o(i.tcp_next_iss)
    i.tcp_oos_insert_segment                 0x00005dcc   Section        0  tcp_in.o(i.tcp_oos_insert_segment)
    tcp_oos_insert_segment                   0x00005dcd   Thumb Code   172  tcp_in.o(i.tcp_oos_insert_segment)
    i.tcp_output                             0x00005e80   Section        0  tcp_out.o(i.tcp_output)
    i.tcp_output_segment                     0x00006080   Section        0  tcp_out.o(i.tcp_output_segment)
    tcp_output_segment                       0x00006081   Thumb Code   222  tcp_out.o(i.tcp_output_segment)
    i.tcp_output_set_header                  0x00006168   Section        0  tcp_out.o(i.tcp_output_set_header)
    tcp_output_set_header                    0x00006169   Thumb Code   170  tcp_out.o(i.tcp_output_set_header)
    i.tcp_parseopt                           0x00006218   Section        0  tcp_in.o(i.tcp_parseopt)
    tcp_parseopt                             0x00006219   Thumb Code   132  tcp_in.o(i.tcp_parseopt)
    i.tcp_pcb_purge                          0x000062a4   Section        0  tcp.o(i.tcp_pcb_purge)
    i.tcp_pcb_remove                         0x000062e8   Section        0  tcp.o(i.tcp_pcb_remove)
    i.tcp_poll                               0x00006344   Section        0  tcp.o(i.tcp_poll)
    i.tcp_process                            0x00006350   Section        0  tcp_in.o(i.tcp_process)
    tcp_process                              0x00006351   Thumb Code   808  tcp_in.o(i.tcp_process)
    i.tcp_receive                            0x0000668c   Section        0  tcp_in.o(i.tcp_receive)
    tcp_receive                              0x0000668d   Thumb Code  1830  tcp_in.o(i.tcp_receive)
    i.tcp_recv                               0x00006dc0   Section        0  tcp.o(i.tcp_recv)
    i.tcp_recv_null                          0x00006dc6   Section        0  tcp.o(i.tcp_recv_null)
    i.tcp_recved                             0x00006dec   Section        0  tcp.o(i.tcp_recved)
    i.tcp_recved_CH57x                       0x00006e28   Section        0  ch57xsock.o(i.tcp_recved_CH57x)
    i.tcp_recved_socket                      0x00006e32   Section        0  ch57xsock.o(i.tcp_recved_socket)
    i.tcp_rexmit                             0x00006e58   Section        0  tcp_out.o(i.tcp_rexmit)
    i.tcp_rexmit_fast                        0x00006ea8   Section        0  tcp_out.o(i.tcp_rexmit_fast)
    i.tcp_rexmit_rto                         0x00006ef6   Section        0  tcp_out.o(i.tcp_rexmit_rto)
    i.tcp_rst                                0x00006f28   Section        0  tcp_out.o(i.tcp_rst)
    i.tcp_seg_copy                           0x00007008   Section        0  tcp.o(i.tcp_seg_copy)
    i.tcp_seg_free                           0x0000702c   Section        0  tcp.o(i.tcp_seg_free)
    i.tcp_segs_free                          0x0000704e   Section        0  tcp.o(i.tcp_segs_free)
    i.tcp_send_ctrl                          0x00007068   Section        0  tcp_out.o(i.tcp_send_ctrl)
    i.tcp_send_empty_ack                     0x0000707e   Section        0  tcp_out.o(i.tcp_send_empty_ack)
    i.tcp_sent                               0x000070ec   Section        0  tcp.o(i.tcp_sent)
    i.tcp_server_connected_back              0x000070f4   Section        0  main.o(i.tcp_server_connected_back)
    i.tcp_server_disconnected_back           0x0000713c   Section        0  main.o(i.tcp_server_disconnected_back)
    i.tcp_server_recv_back                   0x000071b8   Section        0  main.o(i.tcp_server_recv_back)
    i.tcp_slowtmr                            0x000071cc   Section        0  tcp.o(i.tcp_slowtmr)
    i.tcp_timewait_input                     0x0000743c   Section        0  tcp_in.o(i.tcp_timewait_input)
    tcp_timewait_input                       0x0000743d   Thumb Code   112  tcp_in.o(i.tcp_timewait_input)
    i.tcp_tmr                                0x000074b4   Section        0  tcp.o(i.tcp_tmr)
    i.tcp_update_rcv_ann_wnd                 0x000074d0   Section        0  tcp.o(i.tcp_update_rcv_ann_wnd)
    i.tcp_write                              0x0000750c   Section        0  tcp_out.o(i.tcp_write)
    i.tcp_zero_window_probe                  0x0000753c   Section        0  tcp_out.o(i.tcp_zero_window_probe)
    i.time0_init                             0x000075fc   Section        0  time.o(i.time0_init)
    i.uart_init                              0x00007630   Section        0  uart.o(i.uart_init)
    i.uart_send_byte                         0x00007730   Section        0  uart.o(i.uart_send_byte)
    i.udp_bind                               0x00007770   Section        0  udp.o(i.udp_bind)
    i.udp_connect                            0x0000780c   Section        0  udp.o(i.udp_connect)
    i.udp_input                              0x00007894   Section        0  udp.o(i.udp_input)
    i.udp_new                                0x00007ab8   Section        0  udp.o(i.udp_new)
    i.udp_recv                               0x00007ad2   Section        0  udp.o(i.udp_recv)
    i.udp_remove                             0x00007ad8   Section        0  udp.o(i.udp_remove)
    i.udp_send                               0x00007b0c   Section        0  udp.o(i.udp_send)
    i.udp_sendto                             0x00007b18   Section        0  udp.o(i.udp_sendto)
    i.udp_sendto_if                          0x00007b42   Section        0  udp.o(i.udp_sendto_if)
    i.update_arp_entry                       0x00007c2c   Section        0  etharp.o(i.update_arp_entry)
    update_arp_entry                         0x00007c2d   Thumb Code   138  etharp.o(i.update_arp_entry)
    .constdata                               0x00007cbc   Section       16  ch57xsock.o(.constdata)
    .constdata                               0x00007ccc   Section       27  tcp.o(.constdata)
    .constdata                               0x00007ce7   Section        4  ip_addr.o(.constdata)
    .constdata                               0x00007ceb   Section        4  ip_addr.o(.constdata)
    .constdata                               0x00007cef   Section       12  etharp.o(.constdata)
    .conststring                             0x00007cfc   Section      117  tcp.o(.conststring)
    .data                                    0x20000000   Section       28  main.o(.data)
    .data                                    0x2000001c   Section        4  time.o(.data)
    .data                                    0x20000020   Section        8  sys_tick.o(.data)
    .data                                    0x20000028   Section        7  data_forward.o(.data)
    .data                                    0x20000030   Section       54  net_init.o(.data)
    .data                                    0x20000068   Section       24  net_dns.o(.data)
    .data                                    0x20000080   Section        8  net_tcp_server.o(.data)
    .data                                    0x20000088   Section        8  ch57xnet_dhcp.o(.data)
    xid                                      0x2000008c   Data           4  ch57xnet_dhcp.o(.data)
    .data                                    0x20000090   Section       16  ch57xsock.o(.data)
    .data                                    0x200000a0   Section        4  eth.o(.data)
    .data                                    0x200000a4   Section       16  mem.o(.data)
    ram_heap                                 0x200000a4   Data           4  mem.o(.data)
    ram                                      0x200000a8   Data           4  mem.o(.data)
    ram_end                                  0x200000ac   Data           4  mem.o(.data)
    lfree                                    0x200000b0   Data           4  mem.o(.data)
    .data                                    0x200000b4   Section       12  netif.o(.data)
    netifnum                                 0x200000b4   Data           1  netif.o(.data)
    .data                                    0x200000c0   Section       76  tcp.o(.data)
    tcp_timer                                0x200000c0   Data           1  tcp.o(.data)
    port                                     0x200000c2   Data           2  tcp.o(.data)
    iss                                      0x200000c4   Data           4  tcp.o(.data)
    .data                                    0x2000010c   Section        4  udp.o(.data)
    .data                                    0x20000110   Section        8  etharp.o(.data)
    etharp_cached_entry                      0x20000110   Data           1  etharp.o(.data)
    arp_table                                0x20000114   Data           4  etharp.o(.data)
    .data                                    0x20000118   Section       64  ethernetif.o(.data)
    MacRevcNull                              0x20000118   Data           1  ethernetif.o(.data)
    .data                                    0x20000158   Section        4  raw.o(.data)
    raw_pcbs                                 0x20000158   Data           4  raw.o(.data)
    .data                                    0x2000015c   Section       12  memp.o(.data)
    memp_memory                              0x20000164   Data           4  memp.o(.data)
    .data                                    0x20000168   Section       28  tcp_in.o(.data)
    flags                                    0x20000168   Data           1  tcp_in.o(.data)
    recv_flags                               0x20000169   Data           1  tcp_in.o(.data)
    tcplen                                   0x2000016a   Data           2  tcp_in.o(.data)
    tcphdr                                   0x2000016c   Data           4  tcp_in.o(.data)
    iphdr                                    0x20000170   Data           4  tcp_in.o(.data)
    seqno                                    0x20000174   Data           4  tcp_in.o(.data)
    ackno                                    0x20000178   Data           4  tcp_in.o(.data)
    recv_data                                0x2000017c   Data           4  tcp_in.o(.data)
    .data                                    0x20000184   Section       12  ip.o(.data)
    ip_id                                    0x20000184   Data           2  ip.o(.data)
    .data                                    0x20000190   Section        4  stdout.o(.data)
    .bss                                     0x20000194   Section     3866  main.o(.bss)
    .bss                                     0x200010b0   Section     7244  data_forward.o(.bss)
    .bss                                     0x20002d00   Section    12632  net_init.o(.bss)
    .bss                                     0x20005e58   Section      100  ch57xsock.o(.bss)
    .bss                                     0x20005ec0   Section     1916  ethernetif.o(.bss)
    .bss                                     0x2000663c   Section       10  ipcheck.o(.bss)
    .bss                                     0x20006648   Section      628  ch57xnet_nds.o(.bss)
    dns_table                                0x2000665c   Data         608  ch57xnet_nds.o(.bss)
    .bss                                     0x200068bc   Section       32  memp.o(.bss)
    memp_tab                                 0x200068bc   Data          32  memp.o(.bss)
    .bss                                     0x200068dc   Section       20  tcp_in.o(.bss)
    inseg                                    0x200068dc   Data          20  tcp_in.o(.bss)

    Global Symbols

    Symbol Name                              Value     Ov Type        Size  Object(Section)

    BuildAttributes$$THM_ISAv3M$S$PE$A:L22$X:L11$S22$IEEE1$IW$USESV6$~STKCKD$USESV7$~SHL$OSPACE$ROPI$EBA8$MICROLIB$REQ8$PRES8$EABIv2 0x00000000   Number         0  anon$$obj.o ABSOLUTE
    __ARM_use_no_argv                        0x00000000   Number         0  main.o ABSOLUTE
    __Vectors                                0x00000000   Data           4  startup_armcm0.o(RESET)
    _printf_a                                0x00000000   Number         0  stubs.o ABSOLUTE
    _printf_c                                0x00000000   Number         0  stubs.o ABSOLUTE
    _printf_charcount                        0x00000000   Number         0  stubs.o ABSOLUTE
    _printf_d                                0x00000000   Number         0  stubs.o ABSOLUTE
    _printf_e                                0x00000000   Number         0  stubs.o ABSOLUTE
    _printf_f                                0x00000000   Number         0  stubs.o ABSOLUTE
    _printf_flags                            0x00000000   Number         0  stubs.o ABSOLUTE
    _printf_fp_dec                           0x00000000   Number         0  stubs.o ABSOLUTE
    _printf_fp_hex                           0x00000000   Number         0  stubs.o ABSOLUTE
    _printf_g                                0x00000000   Number         0  stubs.o ABSOLUTE
    _printf_i                                0x00000000   Number         0  stubs.o ABSOLUTE
    _printf_int_dec                          0x00000000   Number         0  stubs.o ABSOLUTE
    _printf_l                                0x00000000   Number         0  stubs.o ABSOLUTE
    _printf_lc                               0x00000000   Number         0  stubs.o ABSOLUTE
    _printf_ll                               0x00000000   Number         0  stubs.o ABSOLUTE
    _printf_lld                              0x00000000   Number         0  stubs.o ABSOLUTE
    _printf_lli                              0x00000000   Number         0  stubs.o ABSOLUTE
    _printf_llo                              0x00000000   Number         0  stubs.o ABSOLUTE
    _printf_llu                              0x00000000   Number         0  stubs.o ABSOLUTE
    _printf_llx                              0x00000000   Number         0  stubs.o ABSOLUTE
    _printf_longlong_dec                     0x00000000   Number         0  stubs.o ABSOLUTE
    _printf_longlong_hex                     0x00000000   Number         0  stubs.o ABSOLUTE
    _printf_longlong_oct                     0x00000000   Number         0  stubs.o ABSOLUTE
    _printf_ls                               0x00000000   Number         0  stubs.o ABSOLUTE
    _printf_mbtowc                           0x00000000   Number         0  stubs.o ABSOLUTE
    _printf_n                                0x00000000   Number         0  stubs.o ABSOLUTE
    _printf_o                                0x00000000   Number         0  stubs.o ABSOLUTE
    _printf_p                                0x00000000   Number         0  stubs.o ABSOLUTE
    _printf_percent                          0x00000000   Number         0  stubs.o ABSOLUTE
    _printf_pre_padding                      0x00000000   Number         0  stubs.o ABSOLUTE
    _printf_return_value                     0x00000000   Number         0  stubs.o ABSOLUTE
    _printf_s                                0x00000000   Number         0  stubs.o ABSOLUTE
    _printf_sizespec                         0x00000000   Number         0  stubs.o ABSOLUTE
    _printf_str                              0x00000000   Number         0  stubs.o ABSOLUTE
    _printf_truncate_signed                  0x00000000   Number         0  stubs.o ABSOLUTE
    _printf_truncate_unsigned                0x00000000   Number         0  stubs.o ABSOLUTE
    _printf_u                                0x00000000   Number         0  stubs.o ABSOLUTE
    _printf_wc                               0x00000000   Number         0  stubs.o ABSOLUTE
    _printf_wctomb                           0x00000000   Number         0  stubs.o ABSOLUTE
    _printf_widthprec                        0x00000000   Number         0  stubs.o ABSOLUTE
    _printf_x                                0x00000000   Number         0  stubs.o ABSOLUTE
    __cpp_initialize__aeabi_                  - Undefined Weak Reference
    __cxa_finalize                            - Undefined Weak Reference
    _clock_init                               - Undefined Weak Reference
    _microlib_exit                            - Undefined Weak Reference
    __Vectors_End                            0x00000090   Data           0  startup_armcm0.o(RESET)
    __Vectors_Size                           0x00000090   Number         0  startup_armcm0.o ABSOLUTE
    __main                                   0x00000091   Thumb Code     0  entry.o(.ARM.Collect$$$$00000000)
    _main_stk                                0x00000091   Thumb Code     0  entry2.o(.ARM.Collect$$$$00000001)
    _main_scatterload                        0x00000095   Thumb Code     0  entry5.o(.ARM.Collect$$$$00000004)
    __main_after_scatterload                 0x00000099   Thumb Code     0  entry5.o(.ARM.Collect$$$$00000004)
    _main_clock                              0x00000099   Thumb Code     0  entry7b.o(.ARM.Collect$$$$00000008)
    _main_cpp_init                           0x00000099   Thumb Code     0  entry8b.o(.ARM.Collect$$$$0000000A)
    _main_init                               0x00000099   Thumb Code     0  entry9a.o(.ARM.Collect$$$$0000000B)
    __rt_final_cpp                           0x000000a1   Thumb Code     0  entry10a.o(.ARM.Collect$$$$0000000D)
    __rt_final_exit                          0x000000a1   Thumb Code     0  entry11a.o(.ARM.Collect$$$$0000000F)
    Reset_Handler                            0x000000a5   Thumb Code     8  startup_armcm0.o(.text)
    HardFault_Handler                        0x000000af   Thumb Code     0  startup_armcm0.o(.text)
    SVC_Handler                              0x000000af   Thumb Code     2  startup_armcm0.o(.text)
    PendSV_Handler                           0x000000b1   Thumb Code     2  startup_armcm0.o(.text)
    ADC_IRQHandler                           0x000000b5   Thumb Code     0  startup_armcm0.o(.text)
    BB_IRQHandler                            0x000000b5   Thumb Code     0  startup_armcm0.o(.text)
    GPIO_IRQHandler                          0x000000b5   Thumb Code     0  startup_armcm0.o(.text)
    LED_IRQHandler                           0x000000b5   Thumb Code     0  startup_armcm0.o(.text)
    LLE_IRQHandler                           0x000000b5   Thumb Code     0  startup_armcm0.o(.text)
    RTC_IRQHandler                           0x000000b5   Thumb Code     0  startup_armcm0.o(.text)
    SLAVE_IRQHandler                         0x000000b5   Thumb Code     0  startup_armcm0.o(.text)
    SPI0_IRQHandler                          0x000000b5   Thumb Code     0  startup_armcm0.o(.text)
    SPI1_IRQHandler                          0x000000b5   Thumb Code     0  startup_armcm0.o(.text)
    TMR1_IRQHandler                          0x000000b5   Thumb Code     0  startup_armcm0.o(.text)
    TMR2_IRQHandler                          0x000000b5   Thumb Code     0  startup_armcm0.o(.text)
    TMR3_IRQHandler                          0x000000b5   Thumb Code     0  startup_armcm0.o(.text)
    USB_IRQHandler                           0x000000b5   Thumb Code     0  startup_armcm0.o(.text)
    WDT_IRQHandler                           0x000000b5   Thumb Code     0  startup_armcm0.o(.text)
    __aeabi_uidiv                            0x000000c1   Thumb Code     0  uidiv.o(.text)
    __aeabi_uidivmod                         0x000000c1   Thumb Code    44  uidiv.o(.text)
    __aeabi_idiv                             0x000000ed   Thumb Code     0  idiv.o(.text)
    __aeabi_idivmod                          0x000000ed   Thumb Code    40  idiv.o(.text)
    __aeabi_memcpy                           0x00000115   Thumb Code    36  memcpya.o(.text)
    __aeabi_memcpy4                          0x00000115   Thumb Code     0  memcpya.o(.text)
    __aeabi_memcpy8                          0x00000115   Thumb Code     0  memcpya.o(.text)
    __aeabi_memset                           0x00000139   Thumb Code    14  memseta.o(.text)
    __aeabi_memset4                          0x00000139   Thumb Code     0  memseta.o(.text)
    __aeabi_memset8                          0x00000139   Thumb Code     0  memseta.o(.text)
    __aeabi_memclr                           0x00000147   Thumb Code     4  memseta.o(.text)
    __aeabi_memclr4                          0x00000147   Thumb Code     0  memseta.o(.text)
    __aeabi_memclr8                          0x00000147   Thumb Code     0  memseta.o(.text)
    _memset$wrapper                          0x0000014b   Thumb Code    18  memseta.o(.text)
    strcpy                                   0x0000015d   Thumb Code    18  strcpy.o(.text)
    __aeabi_uread4                           0x0000016f   Thumb Code    20  uread4.o(.text)
    __rt_uread4                              0x0000016f   Thumb Code     0  uread4.o(.text)
    _uread4                                  0x0000016f   Thumb Code     0  uread4.o(.text)
    __aeabi_uwrite4                          0x00000183   Thumb Code    18  uwrite4.o(.text)
    __rt_uwrite4                             0x00000183   Thumb Code     0  uwrite4.o(.text)
    _uwrite4                                 0x00000183   Thumb Code     0  uwrite4.o(.text)
    __aeabi_uldivmod                         0x00000195   Thumb Code    96  uldiv.o(.text)
    __scatterload                            0x000001f5   Thumb Code    28  init.o(.text)
    __scatterload_rt2                        0x000001f5   Thumb Code     0  init.o(.text)
    __aeabi_llsl                             0x00000219   Thumb Code    32  llshl.o(.text)
    _ll_shift_l                              0x00000219   Thumb Code     0  llshl.o(.text)
    __aeabi_llsr                             0x00000239   Thumb Code    34  llushr.o(.text)
    _ll_ushift_r                             0x00000239   Thumb Code     0  llushr.o(.text)
    __decompress                             0x0000025b   Thumb Code     0  __dczerorl2.o(.text)
    __decompress1                            0x0000025b   Thumb Code    86  __dczerorl2.o(.text)
    CH57xFileCorrectTCBPcb                   0x000002b1   Thumb Code    90  ch57xsock.o(i.CH57xFileCorrectTCBPcb)
    CH57xIPSetSocketRecvInit                 0x00000315   Thumb Code    46  ch57xsock.o(i.CH57xIPSetSocketRecvInit)
    CH57xMACRxSuccHandle                     0x0000034d   Thumb Code   106  ethernetif.o(i.CH57xMACRxSuccHandle)
    CH57xNET_ConfigKeepLive                  0x000003cd   Thumb Code    16  ch57xsock.o(i.CH57xNET_ConfigKeepLive)
    CH57xNET_ConfigLIB                       0x000003e1   Thumb Code    26  ch57xsock.o(i.CH57xNET_ConfigLIB)
    CH57xNET_ETHIsr                          0x00000401   Thumb Code     8  ch57xsock.o(i.CH57xNET_ETHIsr)
    CH57xNET_GetGlobalInt                    0x00000409   Thumb Code    14  ch57xsock.o(i.CH57xNET_GetGlobalInt)
    CH57xNET_GetPHYStatus                    0x0000041d   Thumb Code     8  ch57xsock.o(i.CH57xNET_GetPHYStatus)
    CH57xNET_GetSocketInt                    0x00000429   Thumb Code    26  ch57xsock.o(i.CH57xNET_GetSocketInt)
    CH57xNET_GetVer                          0x0000044d   Thumb Code     4  ch57xsock.o(i.CH57xNET_GetVer)
    CH57xNET_HandleGlobalInt                 0x00000451   Thumb Code    68  main.o(i.CH57xNET_HandleGlobalInt)
    CH57xNET_Init                            0x00000499   Thumb Code   258  ch57xsock.o(i.CH57xNET_Init)
    CH57xNET_LibInit                         0x000005cd   Thumb Code    84  net_init.o(i.CH57xNET_LibInit)
    CH57xNET_MainTask                        0x0000062d   Thumb Code    34  ch57xsock.o(i.CH57xNET_MainTask)
    CH57xNET_ModifyRecvBuf                   0x00000659   Thumb Code    52  ch57xsock.o(i.CH57xNET_ModifyRecvBuf)
    CH57xNET_QueryGlobalInt                  0x00000695   Thumb Code    48  ch57xsock.o(i.CH57xNET_QueryGlobalInt)
    CH57xNET_SocketClose                     0x000006d1   Thumb Code    74  ch57xsock.o(i.CH57xNET_SocketClose)
    CH57xNET_SocketCreat                     0x00000725   Thumb Code   370  ch57xsock.o(i.CH57xNET_SocketCreat)
    CH57xNET_SocketListen                    0x000008b9   Thumb Code    72  ch57xsock.o(i.CH57xNET_SocketListen)
    CH57xNET_SocketRecv                      0x00000909   Thumb Code   390  ch57xsock.o(i.CH57xNET_SocketRecv)
    CH57xNET_SocketRecvLen                   0x00000a99   Thumb Code    20  ch57xsock.o(i.CH57xNET_SocketRecvLen)
    CH57xNET_SocketSend                      0x00000ab1   Thumb Code    60  ch57xsock.o(i.CH57xNET_SocketSend)
    CH57xNET_SocketSetKeepLive               0x00000af1   Thumb Code    44  ch57xsock.o(i.CH57xNET_SocketSetKeepLive)
    CH57xNET_TimeIsr                         0x00000b21   Thumb Code    60  ch57xsock.o(i.CH57xNET_TimeIsr)
    CH57xScokedIntHandle                     0x00000b65   Thumb Code    72  ch57xsock.o(i.CH57xScokedIntHandle)
    CH57xSocketInit                          0x00000bad   Thumb Code    42  ch57xsock.o(i.CH57xSocketInit)
    CH57xSocketTCPReceive                    0x00000bdd   Thumb Code   258  ch57xsock.o(i.CH57xSocketTCPReceive)
    CH57xTCPError                            0x00000ce9   Thumb Code     2  ch57xsock.o(i.CH57xTCPError)
    CH57xTCPServerAccept                     0x00000ced   Thumb Code   128  ch57xsock.o(i.CH57xTCPServerAccept)
    CloseIPRAWConnect                        0x00000d85   Thumb Code    42  ch57xsock.o(i.CloseIPRAWConnect)
    CloseTcpPCB                              0x00000db5   Thumb Code    78  ch57xsock.o(i.CloseTcpPCB)
    CloseUpdConnect                          0x00000e09   Thumb Code    42  ch57xsock.o(i.CloseUpdConnect)
    DataForward_CanSend                      0x00000e39   Thumb Code    26  data_forward.o(i.DataForward_CanSend)
    DataForward_FrameComplete                0x00000f55   Thumb Code    64  data_forward.o(i.DataForward_FrameComplete)
    DataForward_GetPeerGroupMask             0x00000f9d   Thumb Code    56  data_forward.o(i.DataForward_GetPeerGroupMask)
    DataForward_GetPortGroup                 0x00000fdd   Thumb Code    36  data_forward.o(i.DataForward_GetPortGroup)
    DataForward_GetTick                      0x00001001   Thumb Code     6  data_forward.o(i.DataForward_GetTick)
    DataForward_Init                         0x0000100d   Thumb Code   112  data_forward.o(i.DataForward_Init)
    DataForward_Process                      0x000010a1   Thumb Code    62  data_forward.o(i.DataForward_Process)
    DataForward_RecvByte                     0x000010e9   Thumb Code    76  data_forward.o(i.DataForward_RecvByte)
    DataForward_RecvFromEth                  0x0000113d   Thumb Code   132  data_forward.o(i.DataForward_RecvFromEth)
    DataForward_ResetRecvState               0x000011c9   Thumb Code    44  data_forward.o(i.DataForward_ResetRecvState)
    DataForward_SendFrame                    0x000011fd   Thumb Code    96  data_forward.o(i.DataForward_SendFrame)
    DataForward_UpdateActivePort             0x00001369   Thumb Code    32  data_forward.o(i.DataForward_UpdateActivePort)
    ETHInit                                  0x00001391   Thumb Code   242  eth.o(i.ETHInit)
    ETHRec                                   0x0000149d   Thumb Code    88  eth.o(i.ETHRec)
    ETHSend                                  0x000014fd   Thumb Code    76  eth.o(i.ETHSend)
    ETH_IRQHandler                           0x00001559   Thumb Code     8  net_init.o(i.ETH_IRQHandler)
    ETH_IRQ_Deal                             0x00001561   Thumb Code   142  eth.o(i.ETH_IRQ_Deal)
    ErrorEncode                              0x00001609   Thumb Code    18  ch57xsock.o(i.ErrorEncode)
    GPIOA_ModeCfg                            0x00001621   Thumb Code   146  ch57x_gpio.o(i.GPIOA_ModeCfg)
    GPIOB_ModeCfg                            0x000016b9   Thumb Code   146  ch57x_gpio.o(i.GPIOB_ModeCfg)
    GPIOPinRemap                             0x00001751   Thumb Code    28  ch57x_gpio.o(i.GPIOPinRemap)
    GetMACAddress                            0x00001771   Thumb Code    24  ch57x_flash.o(i.GetMACAddress)
    GetMacAddr                               0x0000178d   Thumb Code    34  net_init.o(i.GetMacAddr)
    GetSysClock                              0x000017b1   Thumb Code    66  ch57x_clk.o(i.GetSysClock)
    IPCheckParaInit                          0x00001801   Thumb Code    30  ipcheck.o(i.IPCheckParaInit)
    IPCheckTmr                               0x00001829   Thumb Code    82  ipcheck.o(i.IPCheckTmr)
    IPConflictHandle                         0x00001881   Thumb Code    38  ipcheck.o(i.IPConflictHandle)
    InitCH57xMAC                             0x000018b1   Thumb Code    22  hal.o(i.InitCH57xMAC)
    LwIPPeriodicHandle                       0x000018d5   Thumb Code   204  ethernetif.o(i.LwIPPeriodicHandle)
    LwipArpCheck                             0x000019c1   Thumb Code     8  ch57xsock.o(i.LwipArpCheck)
    LwipRemoveTcpPcb                         0x000019cd   Thumb Code   104  ch57xsock.o(i.LwipRemoveTcpPcb)
    LwipTCPPollCallBack                      0x00001a3d   Thumb Code     4  ch57xsock.o(i.LwipTCPPollCallBack)
    LwipTCPSendCallBack                      0x00001a41   Thumb Code    54  ch57xsock.o(i.LwipTCPSendCallBack)
    LwipUnreachPort                          0x00001a79   Thumb Code    22  ch57xsock.o(i.LwipUnreachPort)
    MemShortCopy                             0x00001a95   Thumb Code    22  ch57xsock.o(i.MemShortCopy)
    NMI_Handler                              0x00001aad   Thumb Code   146  ch57x_int.o(i.NMI_Handler)
    PWR_UnitModCfg                           0x00001cc1   Thumb Code   154  ch57x_pwr.o(i.PWR_UnitModCfg)
    PowerMonitor                             0x00001d8d   Thumb Code    90  ch57x_pwr.o(i.PowerMonitor)
    QuaryEthRxDma                            0x00001ded   Thumb Code    74  ethernetif.o(i.QuaryEthRxDma)
    QueryPingEnable                          0x00001e59   Thumb Code     6  ch57xsock.o(i.QueryPingEnable)
    ReadPHYReg                               0x00001e65   Thumb Code    16  eth.o(i.ReadPHYReg)
    RemoveTimeWaiTCP                         0x00001e79   Thumb Code    52  tcp.o(i.RemoveTimeWaiTCP)
    SYS_ResetExecute                         0x00001eb1   Thumb Code    28  ch57x_sys.o(i.SYS_ResetExecute)
    SelIPARPSend                             0x00001ed1   Thumb Code    26  ipcheck.o(i.SelIPARPSend)
    SetSysClock                              0x00001ef1   Thumb Code   342  ch57x_clk.o(i.SetSysClock)
    SetupNetif                               0x00002051   Thumb Code   118  ethernetif.o(i.SetupNetif)
    SocketIPRAWReceive                       0x000020e5   Thumb Code   172  ch57xsock.o(i.SocketIPRAWReceive)
    SocketIPRawSend                          0x00002191   Thumb Code   194  ch57xsock.o(i.SocketIPRawSend)
    SocketTcpSend                            0x0000225d   Thumb Code   250  ch57xsock.o(i.SocketTcpSend)
    SocketUdpReceive                         0x00002361   Thumb Code   184  ch57xsock.o(i.SocketUdpReceive)
    SocketUdpSend                            0x00002419   Thumb Code   182  ch57xsock.o(i.SocketUdpSend)
    SysTick_Handler                          0x000024d9   Thumb Code    20  sys_tick.o(i.SysTick_Handler)
    SystemInit                               0x000024f1   Thumb Code    40  ch57x_clk.o(i.SystemInit)
    TMR0_IRQHandler                          0x0000251d   Thumb Code    96  time.o(i.TMR0_IRQHandler)
    TMR0_TimerInit                           0x00002589   Thumb Code    16  ch57x_timer0.o(i.TMR0_TimerInit)
    UART0_BaudRateCfg                        0x0000259d   Thumb Code    40  ch57x_uart0.o(i.UART0_BaudRateCfg)
    UART0_DefInit                            0x000025c9   Thumb Code    30  ch57x_uart0.o(i.UART0_DefInit)
    UART0_INTCfg                             0x000025ed   Thumb Code    40  ch57x_uart0.o(i.UART0_INTCfg)
    UART0_IRQHandler                         0x00002619   Thumb Code   100  uart.o(i.UART0_IRQHandler)
    UART1_BaudRateCfg                        0x00002681   Thumb Code    40  ch57x_uart1.o(i.UART1_BaudRateCfg)
    UART1_DefInit                            0x000026ad   Thumb Code    30  ch57x_uart1.o(i.UART1_DefInit)
    UART1_INTCfg                             0x000026d1   Thumb Code    40  ch57x_uart1.o(i.UART1_INTCfg)
    UART1_IRQHandler                         0x000026fd   Thumb Code   100  uart.o(i.UART1_IRQHandler)
    UART2_BaudRateCfg                        0x00002765   Thumb Code    40  ch57x_uart2.o(i.UART2_BaudRateCfg)
    UART2_DefInit                            0x00002791   Thumb Code    30  ch57x_uart2.o(i.UART2_DefInit)
    UART2_INTCfg                             0x000027b5   Thumb Code    40  ch57x_uart2.o(i.UART2_INTCfg)
    UART2_IRQHandler                         0x000027e1   Thumb Code   100  uart.o(i.UART2_IRQHandler)
    UART3_BaudRateCfg                        0x00002849   Thumb Code    40  ch57x_uart3.o(i.UART3_BaudRateCfg)
    UART3_DefInit                            0x00002875   Thumb Code    30  ch57x_uart3.o(i.UART3_DefInit)
    UART3_INTCfg                             0x00002899   Thumb Code    40  ch57x_uart3.o(i.UART3_INTCfg)
    UART3_IRQHandler                         0x000028c5   Thumb Code   100  uart.o(i.UART3_IRQHandler)
    __0printf$8                              0x0000292d   Thumb Code    24  printf8.o(i.__0printf$8)
    __1printf$8                              0x0000292d   Thumb Code     0  printf8.o(i.__0printf$8)
    __2printf                                0x0000292d   Thumb Code     0  printf8.o(i.__0printf$8)
    __ARM_common_switch8                     0x0000294d   Thumb Code    26  tcp.o(i.__ARM_common_switch8)
    __scatterload_copy                       0x00002967   Thumb Code    14  handlers.o(i.__scatterload_copy)
    __scatterload_null                       0x00002975   Thumb Code     2  handlers.o(i.__scatterload_null)
    __scatterload_zeroinit                   0x00002977   Thumb Code    14  handlers.o(i.__scatterload_zeroinit)
    dhcp_arp_reply                           0x00002df9   Thumb Code    38  ch57xnet_dhcp.o(i.dhcp_arp_reply)
    etharp_arp_input                         0x00003155   Thumb Code   302  etharp.o(i.etharp_arp_input)
    etharp_ip_input                          0x00003291   Thumb Code    44  etharp.o(i.etharp_ip_input)
    etharp_output                            0x000032bd   Thumb Code   198  etharp.o(i.etharp_output)
    etharp_query                             0x00003389   Thumb Code   170  etharp.o(i.etharp_query)
    etharp_request                           0x000034f1   Thumb Code    32  etharp.o(i.etharp_request)
    etharp_tmr                               0x00003549   Thumb Code    62  etharp.o(i.etharp_tmr)
    ethernet_input                           0x00003591   Thumb Code    94  etharp.o(i.ethernet_input)
    ethernetif_init                          0x000035f5   Thumb Code    54  ethernetif.o(i.ethernetif_init)
    ethernetif_input                         0x00003639   Thumb Code    94  ethernetif.o(i.ethernetif_input)
    fputc                                    0x000037b9   Thumb Code    20  uart.o(i.fputc)
    htonl                                    0x000037cd   Thumb Code     4  inet.o(i.htonl)
    htons                                    0x000037d1   Thumb Code     4  inet.o(i.htons)
    icmp_dest_unreach                        0x000037d5   Thumb Code    12  icmp.o(i.icmp_dest_unreach)
    icmp_input                               0x000037e1   Thumb Code   494  icmp.o(i.icmp_input)
    inet_chksum                              0x00003a3f   Thumb Code    12  inet_chksum.o(i.inet_chksum)
    inet_chksum_pbuf                         0x00003a4b   Thumb Code    62  inet_chksum.o(i.inet_chksum_pbuf)
    inet_chksum_pseudo                       0x00003a89   Thumb Code   120  inet_chksum.o(i.inet_chksum_pseudo)
    ip_addr_isbroadcast                      0x00003b01   Thumb Code    58  ip_addr.o(i.ip_addr_isbroadcast)
    ip_frag                                  0x00003b3b   Thumb Code   346  ip_frag.o(i.ip_frag)
    ip_input                                 0x00003c95   Thumb Code   572  ip.o(i.ip_input)
    ip_output                                0x00003ee1   Thumb Code    50  ip.o(i.ip_output)
    ip_output_if                             0x00003f15   Thumb Code   262  ip.o(i.ip_output_if)
    ip_route                                 0x00004021   Thumb Code    74  ip.o(i.ip_route)
    low_level_init                           0x00004075   Thumb Code   146  ethernetif.o(i.low_level_init)
    lwip_init                                0x000042ad   Thumb Code    22  init.o(i.lwip_init)
    mDelaymS                                 0x00004305   Thumb Code    26  ch57x_sys.o(i.mDelaymS)
    mDelayuS                                 0x0000431f   Thumb Code    34  ch57x_sys.o(i.mDelayuS)
    main                                     0x00004341   Thumb Code    88  main.o(i.main)
    mem_free                                 0x000043ad   Thumb Code    40  mem.o(i.mem_free)
    mem_init                                 0x000043d9   Thumb Code    68  mem.o(i.mem_init)
    mem_malloc                               0x00004429   Thumb Code   168  mem.o(i.mem_malloc)
    mem_realloc                              0x000044dd   Thumb Code   204  mem.o(i.mem_realloc)
    memp_free                                0x000045b5   Thumb Code    16  memp.o(i.memp_free)
    memp_init                                0x000045c9   Thumb Code    70  memp.o(i.memp_init)
    memp_malloc                              0x00004619   Thumb Code    24  memp.o(i.memp_malloc)
    net_dns_loop                             0x00004635   Thumb Code    58  net_dns.o(i.net_dns_loop)
    net_dns_socket_close                     0x00004681   Thumb Code    34  net_dns.o(i.net_dns_socket_close)
    net_init                                 0x000046a9   Thumb Code    68  net_init.o(i.net_init)
    net_initkeeplive                         0x00004719   Thumb Code    22  net_init.o(i.net_initkeeplive)
    net_tcp_server_close                     0x00004735   Thumb Code    20  net_tcp_server.o(i.net_tcp_server_close)
    net_tcp_server_creat_socket              0x00004749   Thumb Code   146  net_tcp_server.o(i.net_tcp_server_creat_socket)
    net_tcp_server_data                      0x00004805   Thumb Code   260  net_tcp_server.o(i.net_tcp_server_data)
    net_tcp_server_send                      0x00004915   Thumb Code    72  net_tcp_server.o(i.net_tcp_server_send)
    netif_add                                0x00004975   Thumb Code    68  netif.o(i.netif_add)
    netif_is_up                              0x000049bd   Thumb Code    10  netif.o(i.netif_is_up)
    netif_set_addr                           0x000049c7   Thumb Code    30  netif.o(i.netif_set_addr)
    netif_set_default                        0x000049e5   Thumb Code     6  netif.o(i.netif_set_default)
    netif_set_gw                             0x000049f1   Thumb Code    22  netif.o(i.netif_set_gw)
    netif_set_ipaddr                         0x00004a09   Thumb Code   124  netif.o(i.netif_set_ipaddr)
    netif_set_netmask                        0x00004a8d   Thumb Code    22  netif.o(i.netif_set_netmask)
    ntohl                                    0x00004aa3   Thumb Code     4  inet.o(i.ntohl)
    ntohs                                    0x00004aa7   Thumb Code     4  inet.o(i.ntohs)
    pbuf_alloc                               0x00004aad   Thumb Code   270  pbuf.o(i.pbuf_alloc)
    pbuf_cat                                 0x00004bc1   Thumb Code    40  pbuf.o(i.pbuf_cat)
    pbuf_chain                               0x00004be9   Thumb Code    16  pbuf.o(i.pbuf_chain)
    pbuf_clen                                0x00004bf9   Thumb Code    18  pbuf.o(i.pbuf_clen)
    pbuf_copy                                0x00004c0b   Thumb Code   148  pbuf.o(i.pbuf_copy)
    pbuf_free                                0x00004c9f   Thumb Code    68  pbuf.o(i.pbuf_free)
    pbuf_header                              0x00004ce3   Thumb Code   102  pbuf.o(i.pbuf_header)
    pbuf_realloc                             0x00004d49   Thumb Code    82  pbuf.o(i.pbuf_realloc)
    pbuf_ref                                 0x00004d9b   Thumb Code    12  pbuf.o(i.pbuf_ref)
    phy_change                               0x00004da9   Thumb Code    18  ch57xsock.o(i.phy_change)
    raw_bind                                 0x00004e19   Thumb Code    24  raw.o(i.raw_bind)
    raw_connect                              0x00004e31   Thumb Code    24  raw.o(i.raw_connect)
    raw_input                                0x00004e49   Thumb Code   110  raw.o(i.raw_input)
    raw_new                                  0x00004ebd   Thumb Code    38  raw.o(i.raw_new)
    raw_recv                                 0x00004ee9   Thumb Code     6  raw.o(i.raw_recv)
    raw_remove                               0x00004ef1   Thumb Code    46  raw.o(i.raw_remove)
    raw_send                                 0x00004f25   Thumb Code    10  raw.o(i.raw_send)
    raw_sendto                               0x00004f2f   Thumb Code   146  raw.o(i.raw_sendto)
    tcp_abandon                              0x00004fc1   Thumb Code   164  tcp.o(i.tcp_abandon)
    tcp_accept                               0x00005069   Thumb Code     4  tcp.o(i.tcp_accept)
    tcp_alloc                                0x00005075   Thumb Code   260  tcp.o(i.tcp_alloc)
    tcp_arg                                  0x00005189   Thumb Code     4  tcp.o(i.tcp_arg)
    tcp_bind                                 0x0000518d   Thumb Code   248  tcp.o(i.tcp_bind)
    tcp_close                                0x00005289   Thumb Code   176  tcp.o(i.tcp_close)
    tcp_eff_send_mss                         0x0000533d   Thumb Code    36  tcp.o(i.tcp_eff_send_mss)
    tcp_enqueue                              0x00005361   Thumb Code   970  tcp_out.o(i.tcp_enqueue)
    tcp_err                                  0x00005739   Thumb Code     6  tcp.o(i.tcp_err)
    tcp_fasttmr                              0x00005741   Thumb Code    98  tcp.o(i.tcp_fasttmr)
    tcp_input                                0x000057a9   Thumb Code   956  tcp_in.o(i.tcp_input)
    tcp_keepalive                            0x00005b79   Thumb Code    90  tcp_out.o(i.tcp_keepalive)
    tcp_listen_with_backlog                  0x00005cd1   Thumb Code   124  tcp.o(i.tcp_listen_with_backlog)
    tcp_new                                  0x00005d55   Thumb Code    10  tcp.o(i.tcp_new)
    tcp_next_iss                             0x00005dbd   Thumb Code    12  tcp.o(i.tcp_next_iss)
    tcp_output                               0x00005e81   Thumb Code   508  tcp_out.o(i.tcp_output)
    tcp_pcb_purge                            0x000062a5   Thumb Code    68  tcp.o(i.tcp_pcb_purge)
    tcp_pcb_remove                           0x000062e9   Thumb Code    86  tcp.o(i.tcp_pcb_remove)
    tcp_poll                                 0x00006345   Thumb Code    10  tcp.o(i.tcp_poll)
    tcp_recv                                 0x00006dc1   Thumb Code     6  tcp.o(i.tcp_recv)
    tcp_recv_null                            0x00006dc7   Thumb Code    36  tcp.o(i.tcp_recv_null)
    tcp_recved                               0x00006ded   Thumb Code    56  tcp.o(i.tcp_recved)
    tcp_recved_CH57x                         0x00006e29   Thumb Code    10  ch57xsock.o(i.tcp_recved_CH57x)
    tcp_recved_socket                        0x00006e33   Thumb Code    38  ch57xsock.o(i.tcp_recved_socket)
    tcp_rexmit                               0x00006e59   Thumb Code    80  tcp_out.o(i.tcp_rexmit)
    tcp_rexmit_fast                          0x00006ea9   Thumb Code    78  tcp_out.o(i.tcp_rexmit_fast)
    tcp_rexmit_rto                           0x00006ef7   Thumb Code    48  tcp_out.o(i.tcp_rexmit_rto)
    tcp_rst                                  0x00006f29   Thumb Code   216  tcp_out.o(i.tcp_rst)
    tcp_seg_copy                             0x00007009   Thumb Code    36  tcp.o(i.tcp_seg_copy)
    tcp_seg_free                             0x0000702d   Thumb Code    34  tcp.o(i.tcp_seg_free)
    tcp_segs_free                            0x0000704f   Thumb Code    26  tcp.o(i.tcp_segs_free)
    tcp_send_ctrl                            0x00007069   Thumb Code    22  tcp_out.o(i.tcp_send_ctrl)
    tcp_send_empty_ack                       0x0000707f   Thumb Code   110  tcp_out.o(i.tcp_send_empty_ack)
    tcp_sent                                 0x000070ed   Thumb Code     6  tcp.o(i.tcp_sent)
    tcp_server_connected_back                0x000070f5   Thumb Code    56  main.o(i.tcp_server_connected_back)
    tcp_server_disconnected_back             0x0000713d   Thumb Code   106  main.o(i.tcp_server_disconnected_back)
    tcp_server_recv_back                     0x000071b9   Thumb Code    18  main.o(i.tcp_server_recv_back)
    tcp_slowtmr                              0x000071cd   Thumb Code   608  tcp.o(i.tcp_slowtmr)
    tcp_tmr                                  0x000074b5   Thumb Code    24  tcp.o(i.tcp_tmr)
    tcp_update_rcv_ann_wnd                   0x000074d1   Thumb Code    54  tcp.o(i.tcp_update_rcv_ann_wnd)
    tcp_write                                0x0000750d   Thumb Code    48  tcp_out.o(i.tcp_write)
    tcp_zero_window_probe                    0x0000753d   Thumb Code   186  tcp_out.o(i.tcp_zero_window_probe)
    time0_init                               0x000075fd   Thumb Code    44  time.o(i.time0_init)
    uart_init                                0x00007631   Thumb Code   252  uart.o(i.uart_init)
    uart_send_byte                           0x00007731   Thumb Code    46  uart.o(i.uart_send_byte)
    udp_bind                                 0x00007771   Thumb Code   148  udp.o(i.udp_bind)
    udp_connect                              0x0000780d   Thumb Code   130  udp.o(i.udp_connect)
    udp_input                                0x00007895   Thumb Code   538  udp.o(i.udp_input)
    udp_new                                  0x00007ab9   Thumb Code    26  udp.o(i.udp_new)
    udp_recv                                 0x00007ad3   Thumb Code     6  udp.o(i.udp_recv)
    udp_remove                               0x00007ad9   Thumb Code    46  udp.o(i.udp_remove)
    udp_send                                 0x00007b0d   Thumb Code    12  udp.o(i.udp_send)
    udp_sendto                               0x00007b19   Thumb Code    42  udp.o(i.udp_sendto)
    udp_sendto_if                            0x00007b43   Thumb Code   234  udp.o(i.udp_sendto_if)
    ErrTable                                 0x00007cbc   Data          16  ch57xsock.o(.constdata)
    tcp_persist_backoff                      0x00007ccc   Data           7  tcp.o(.constdata)
    tcp_backoff                              0x00007cd3   Data          20  tcp.o(.constdata)
    ip_addr_any                              0x00007ce7   Data           4  ip_addr.o(.constdata)
    ip_addr_broadcast                        0x00007ceb   Data           4  ip_addr.o(.constdata)
    ethbroadcast                             0x00007cef   Data           6  etharp.o(.constdata)
    ethzero                                  0x00007cf5   Data           6  etharp.o(.constdata)
    Region$$Table$$Base                      0x00007d74   Number         0  anon$$obj.o(Region$$Table)
    Region$$Table$$Limit                     0x00007d94   Number         0  anon$$obj.o(Region$$Table)
    main_len                                 0x20000000   Data           4  main.o(.data)
    main_str                                 0x20000004   Data           4  main.o(.data)
    socket1                                  0x20000008   Data           4  main.o(.data)
    socket2                                  0x2000000c   Data           4  main.o(.data)
    socket3                                  0x20000010   Data           4  main.o(.data)
    socket4                                  0x20000014   Data           4  main.o(.data)
    client_ip                                0x20000018   Data           4  main.o(.data)
    timer0_value                             0x2000001c   Data           4  time.o(.data)
    SysTickTimer                             0x20000020   Data           8  sys_tick.o(.data)
    g_lastSendTime                           0x20000028   Data           4  data_forward.o(.data)
    g_sendPending                            0x2000002c   Data           1  data_forward.o(.data)
    g_groupA_ActivePort                      0x2000002d   Data           1  data_forward.o(.data)
    g_groupB_ActivePort                      0x2000002e   Data           1  data_forward.o(.data)
    MemNum                                   0x20000030   Data          16  net_init.o(.data)
    MemSize                                  0x20000040   Data          16  net_init.o(.data)
    MACAddr                                  0x20000050   Data           6  net_init.o(.data)
    IPAddr                                   0x20000056   Data           4  net_init.o(.data)
    GWIPAddr                                 0x2000005a   Data           4  net_init.o(.data)
    IPMask                                   0x2000005e   Data           4  net_init.o(.data)
    CH57xNET_LEDCONN                         0x20000062   Data           2  net_init.o(.data)
    CH57xNET_LEDDATA                         0x20000064   Data           2  net_init.o(.data)
    net_dns_socket_index                     0x20000068   Data           1  net_dns.o(.data)
    dns_server_ip                            0x20000069   Data           4  net_dns.o(.data)
    dns_server_port                          0x2000006e   Data           2  net_dns.o(.data)
    dns_local_port                           0x20000070   Data           2  net_dns.o(.data)
    nds_msg_id                               0x20000072   Data           2  net_dns.o(.data)
    net_dns_ip_copy                          0x20000074   Data           4  net_dns.o(.data)
    net_dns_start                            0x20000078   Data           1  net_dns.o(.data)
    net_dns_time_out_cnt                     0x2000007c   Data           4  net_dns.o(.data)
    socket_client_t                          0x20000080   Data           8  net_tcp_server.o(.data)
    DHCPFlag                                 0x20000088   Data           1  ch57xnet_dhcp.o(.data)
    PHYFLAG                                  0x20000090   Data           1  ch57xsock.o(.data)
    physflag                                 0x20000091   Data           1  ch57xsock.o(.data)
    RxQueueEntries                           0x20000092   Data           1  ch57xsock.o(.data)
    TxQueueEntries                           0x20000093   Data           1  ch57xsock.o(.data)
    PingEnable                               0x20000094   Data           1  ch57xsock.o(.data)
    SocketNum                                0x20000095   Data           1  ch57xsock.o(.data)
    phytime                                  0x20000096   Data           2  ch57xsock.o(.data)
    CH57xNETConfig                           0x20000098   Data           4  ch57xsock.o(.data)
    tcppackt                                 0x2000009c   Data           4  ch57xsock.o(.data)
    SuccessPackets                           0x200000a0   Data           4  eth.o(.data)
    netif_list                               0x200000b8   Data           4  netif.o(.data)
    netif_default                            0x200000bc   Data           4  netif.o(.data)
    tcp_ticks                                0x200000c8   Data           4  tcp.o(.data)
    tcp_bound_pcbs                           0x200000cc   Data           4  tcp.o(.data)
    tcp_listen_pcbs                          0x200000d0   Data           4  tcp.o(.data)
    tcp_active_pcbs                          0x200000d4   Data           4  tcp.o(.data)
    tcp_tw_pcbs                              0x200000d8   Data           4  tcp.o(.data)
    tcp_tmp_pcb                              0x200000dc   Data           4  tcp.o(.data)
    tcp_state_str                            0x200000e0   Data          44  tcp.o(.data)
    udp_pcbs                                 0x2000010c   Data           4  udp.o(.data)
    DataLED                                  0x20000119   Data           1  ethernetif.o(.data)
    LocalTime                                0x2000011c   Data           4  ethernetif.o(.data)
    TCPTimer                                 0x20000120   Data           4  ethernetif.o(.data)
    ARPTimer                                 0x20000124   Data           4  ethernetif.o(.data)
    DHCPfineTimer                            0x20000128   Data           4  ethernetif.o(.data)
    DHCPcoarseTimer                          0x2000012c   Data           4  ethernetif.o(.data)
    DHCPTestTimer                            0x20000130   Data           4  ethernetif.o(.data)
    DNSTimer                                 0x20000134   Data           4  ethernetif.o(.data)
    CH57xMACAddr                             0x20000138   Data           4  ethernetif.o(.data)
    CH57xIPAddr                              0x2000013c   Data           4  ethernetif.o(.data)
    CH57xGWIPAddr                            0x20000140   Data           4  ethernetif.o(.data)
    CH57xIPMask                              0x20000144   Data           4  ethernetif.o(.data)
    TX_BUF_ADDR                              0x20000148   Data           4  ethernetif.o(.data)
    TX_DESC_ADDR                             0x2000014c   Data           4  ethernetif.o(.data)
    RX_BUF_ADDR                              0x20000150   Data           4  ethernetif.o(.data)
    RX_DESC_ADDR                             0x20000154   Data           4  ethernetif.o(.data)
    memp_sizes                               0x2000015c   Data           4  memp.o(.data)
    memp_num                                 0x20000160   Data           4  memp.o(.data)
    tcp_input_pcb                            0x20000180   Data           4  tcp_in.o(.data)
    current_netif                            0x20000188   Data           4  ip.o(.data)
    current_header                           0x2000018c   Data           4  ip.o(.data)
    __stdout                                 0x20000190   Data           4  stdout.o(.data)
    RxBuffer                                 0x20000194   Data          64  main.o(.bss)
    TxBuffer                                 0x200001d4   Data          64  main.o(.bss)
    main_buffer                              0x20000214   Data        1024  main.o(.bss)
    net_tcp_server                           0x20000614   Data        2704  main.o(.bss)
    TcpMybuf                                 0x200010a4   Data          10  main.o(.bss)
    g_frameQueue                             0x200010b0   Data        3100  data_forward.o(.bss)
    g_recvState                              0x20001ccc   Data        4144  data_forward.o(.bss)
    SocketInf                                0x20002d00   Data         240  net_init.o(.bss)
    CH57xMACRxDesBuf                         0x20002df0   Data          64  net_init.o(.bss)
    CH57xMACRxBuf                            0x20002e30   Data        2400  net_init.o(.bss)
    Memp_Memory                              0x20003790   Data        5147  net_init.o(.bss)
    Mem_Heap_Memory                          0x20004bac   Data        4620  net_init.o(.bss)
    Mem_ArpTable                             0x20005db8   Data         160  net_init.o(.bss)
    CH57xInf                                 0x20005e58   Data          68  ch57xsock.o(.bss)
    CH57xCfg                                 0x20005e9c   Data          20  ch57xsock.o(.bss)
    KeepLiveCfg                              0x20005eb0   Data          12  ch57xsock.o(.bss)
    DHCPCtrl                                 0x20005ec0   Data          24  ethernetif.o(.bss)
    CH57xNetIf                               0x20005ed8   Data          56  ethernetif.o(.bss)
    CH57xMACTxDesBuf                         0x20005f10   Data          32  ethernetif.o(.bss)
    CH57xMACTxBuf                            0x20005f30   Data        1536  ethernetif.o(.bss)
    dhcp_host_name                           0x20006530   Data          50  ethernetif.o(.bss)
    RxCtrl                                   0x20006564   Data         196  ethernetif.o(.bss)
    TXCtrl                                   0x20006628   Data          20  ethernetif.o(.bss)
    SelARP                                   0x2000663c   Data          10  ipcheck.o(.bss)
    DNSInf                                   0x20006648   Data          20  ch57xnet_nds.o(.bss)
    __initial_sp                             0x20008000   Number         0  startup_armcm0.o ABSOLUTE



==============================================================================

Memory Map of the image

  Image Entry point : 0x00000091

  Load Region LR_IROM1 (Base: 0x00000000, Size: 0x00007f28, Max: 0x0003e800, ABSOLUTE, COMPRESSED[0x00007e1c])

    Execution Region ER_IROM1 (Exec base: 0x00000000, Load base: 0x00000000, Size: 0x00007d94, Max: 0x0003e800, ABSOLUTE)

    Exec Addr    Load Addr    Size         Type   Attr      Idx    E Section Name        Object

    0x00000000   0x00000000   0x00000090   Data   RO         1846    RESET               startup_armcm0.o
    0x00000090   0x00000090   0x00000000   Code   RO         2878  * .ARM.Collect$$$$00000000  mc_p.l(entry.o)
    0x00000090   0x00000090   0x00000004   Code   RO         3166    .ARM.Collect$$$$00000001  mc_p.l(entry2.o)
    0x00000094   0x00000094   0x00000004   Code   RO         3169    .ARM.Collect$$$$00000004  mc_p.l(entry5.o)
    0x00000098   0x00000098   0x00000000   Code   RO         3171    .ARM.Collect$$$$00000008  mc_p.l(entry7b.o)
    0x00000098   0x00000098   0x00000000   Code   RO         3173    .ARM.Collect$$$$0000000A  mc_p.l(entry8b.o)
    0x00000098   0x00000098   0x00000008   Code   RO         3174    .ARM.Collect$$$$0000000B  mc_p.l(entry9a.o)
    0x000000a0   0x000000a0   0x00000000   Code   RO         3176    .ARM.Collect$$$$0000000D  mc_p.l(entry10a.o)
    0x000000a0   0x000000a0   0x00000000   Code   RO         3178    .ARM.Collect$$$$0000000F  mc_p.l(entry11a.o)
    0x000000a0   0x000000a0   0x00000004   Code   RO         3167    .ARM.Collect$$$$00002712  mc_p.l(entry2.o)
    0x000000a4   0x000000a4   0x0000001c   Code   RO         1847    .text               startup_armcm0.o
    0x000000c0   0x000000c0   0x0000002c   Code   RO         2881    .text               mc_p.l(uidiv.o)
    0x000000ec   0x000000ec   0x00000028   Code   RO         2883    .text               mc_p.l(idiv.o)
    0x00000114   0x00000114   0x00000024   Code   RO         2885    .text               mc_p.l(memcpya.o)
    0x00000138   0x00000138   0x00000024   Code   RO         2887    .text               mc_p.l(memseta.o)
    0x0000015c   0x0000015c   0x00000012   Code   RO         2897    .text               mc_p.l(strcpy.o)
    0x0000016e   0x0000016e   0x00000014   Code   RO         3162    .text               mc_p.l(uread4.o)
    0x00000182   0x00000182   0x00000012   Code   RO         3164    .text               mc_p.l(uwrite4.o)
    0x00000194   0x00000194   0x00000060   Code   RO         3181    .text               mc_p.l(uldiv.o)
    0x000001f4   0x000001f4   0x00000024   Code   RO         3194    .text               mc_p.l(init.o)
    0x00000218   0x00000218   0x00000020   Code   RO         3196    .text               mc_p.l(llshl.o)
    0x00000238   0x00000238   0x00000022   Code   RO         3198    .text               mc_p.l(llushr.o)
    0x0000025a   0x0000025a   0x00000056   Code   RO         3213    .text               mc_p.l(__dczerorl2.o)
    0x000002b0   0x000002b0   0x00000064   Code   RO         2377    i.CH57xFileCorrectTCBPcb  CH57xNET.LIB(ch57xsock.o)
    0x00000314   0x00000314   0x00000038   Code   RO         2379    i.CH57xIPSetSocketRecvInit  CH57xNET.LIB(ch57xsock.o)
    0x0000034c   0x0000034c   0x00000080   Code   RO         2746    i.CH57xMACRxSuccHandle  CH57xNET.LIB(ethernetif.o)
    0x000003cc   0x000003cc   0x00000014   Code   RO         2381    i.CH57xNET_ConfigKeepLive  CH57xNET.LIB(ch57xsock.o)
    0x000003e0   0x000003e0   0x00000020   Code   RO         2382    i.CH57xNET_ConfigLIB  CH57xNET.LIB(ch57xsock.o)
    0x00000400   0x00000400   0x00000008   Code   RO         2383    i.CH57xNET_ETHIsr   CH57xNET.LIB(ch57xsock.o)
    0x00000408   0x00000408   0x00000014   Code   RO         2384    i.CH57xNET_GetGlobalInt  CH57xNET.LIB(ch57xsock.o)
    0x0000041c   0x0000041c   0x0000000c   Code   RO         2385    i.CH57xNET_GetPHYStatus  CH57xNET.LIB(ch57xsock.o)
    0x00000428   0x00000428   0x00000024   Code   RO         2386    i.CH57xNET_GetSocketInt  CH57xNET.LIB(ch57xsock.o)
    0x0000044c   0x0000044c   0x00000004   Code   RO         2387    i.CH57xNET_GetVer   CH57xNET.LIB(ch57xsock.o)
    0x00000450   0x00000450   0x00000048   Code   RO            3    i.CH57xNET_HandleGlobalInt  main.o
    0x00000498   0x00000498   0x00000134   Code   RO         2388    i.CH57xNET_Init     CH57xNET.LIB(ch57xsock.o)
    0x000005cc   0x000005cc   0x00000060   Code   RO         2004    i.CH57xNET_LibInit  net_init.o
    0x0000062c   0x0000062c   0x0000002c   Code   RO         2389    i.CH57xNET_MainTask  CH57xNET.LIB(ch57xsock.o)
    0x00000658   0x00000658   0x0000003c   Code   RO         2390    i.CH57xNET_ModifyRecvBuf  CH57xNET.LIB(ch57xsock.o)
    0x00000694   0x00000694   0x0000003c   Code   RO         2394    i.CH57xNET_QueryGlobalInt  CH57xNET.LIB(ch57xsock.o)
    0x000006d0   0x000006d0   0x00000054   Code   RO         2398    i.CH57xNET_SocketClose  CH57xNET.LIB(ch57xsock.o)
    0x00000724   0x00000724   0x00000194   Code   RO         2400    i.CH57xNET_SocketCreat  CH57xNET.LIB(ch57xsock.o)
    0x000008b8   0x000008b8   0x00000050   Code   RO         2401    i.CH57xNET_SocketListen  CH57xNET.LIB(ch57xsock.o)
    0x00000908   0x00000908   0x00000190   Code   RO         2402    i.CH57xNET_SocketRecv  CH57xNET.LIB(ch57xsock.o)
    0x00000a98   0x00000a98   0x00000018   Code   RO         2403    i.CH57xNET_SocketRecvLen  CH57xNET.LIB(ch57xsock.o)
    0x00000ab0   0x00000ab0   0x00000040   Code   RO         2404    i.CH57xNET_SocketSend  CH57xNET.LIB(ch57xsock.o)
    0x00000af0   0x00000af0   0x00000030   Code   RO         2405    i.CH57xNET_SocketSetKeepLive  CH57xNET.LIB(ch57xsock.o)
    0x00000b20   0x00000b20   0x00000044   Code   RO         2407    i.CH57xNET_TimeIsr  CH57xNET.LIB(ch57xsock.o)
    0x00000b64   0x00000b64   0x00000048   Code   RO         2408    i.CH57xScokedIntHandle  CH57xNET.LIB(ch57xsock.o)
    0x00000bac   0x00000bac   0x00000030   Code   RO         2409    i.CH57xSocketInit   CH57xNET.LIB(ch57xsock.o)
    0x00000bdc   0x00000bdc   0x0000010c   Code   RO         2410    i.CH57xSocketTCPReceive  CH57xNET.LIB(ch57xsock.o)
    0x00000ce8   0x00000ce8   0x00000002   Code   RO         2412    i.CH57xTCPError     CH57xNET.LIB(ch57xsock.o)
    0x00000cea   0x00000cea   0x00000002   PAD
    0x00000cec   0x00000cec   0x00000098   Code   RO         2413    i.CH57xTCPServerAccept  CH57xNET.LIB(ch57xsock.o)
    0x00000d84   0x00000d84   0x00000030   Code   RO         2414    i.CloseIPRAWConnect  CH57xNET.LIB(ch57xsock.o)
    0x00000db4   0x00000db4   0x00000054   Code   RO         2415    i.CloseTcpPCB       CH57xNET.LIB(ch57xsock.o)
    0x00000e08   0x00000e08   0x00000030   Code   RO         2416    i.CloseUpdConnect   CH57xNET.LIB(ch57xsock.o)
    0x00000e38   0x00000e38   0x00000020   Code   RO          378    i.DataForward_CanSend  data_forward.o
    0x00000e58   0x00000e58   0x00000050   Code   RO          379    i.DataForward_DequeueFrame  data_forward.o
    0x00000ea8   0x00000ea8   0x000000ac   Code   RO          380    i.DataForward_EnqueueFrame  data_forward.o
    0x00000f54   0x00000f54   0x00000048   Code   RO          381    i.DataForward_FrameComplete  data_forward.o
    0x00000f9c   0x00000f9c   0x00000040   Code   RO          383    i.DataForward_GetPeerGroupMask  data_forward.o
    0x00000fdc   0x00000fdc   0x00000024   Code   RO          384    i.DataForward_GetPortGroup  data_forward.o
    0x00001000   0x00001000   0x0000000c   Code   RO          385    i.DataForward_GetTick  data_forward.o
    0x0000100c   0x0000100c   0x00000094   Code   RO          386    i.DataForward_Init  data_forward.o
    0x000010a0   0x000010a0   0x00000048   Code   RO          387    i.DataForward_Process  data_forward.o
    0x000010e8   0x000010e8   0x00000054   Code   RO          388    i.DataForward_RecvByte  data_forward.o
    0x0000113c   0x0000113c   0x0000008c   Code   RO          389    i.DataForward_RecvFromEth  data_forward.o
    0x000011c8   0x000011c8   0x00000034   Code   RO          390    i.DataForward_ResetRecvState  data_forward.o
    0x000011fc   0x000011fc   0x00000060   Code   RO          391    i.DataForward_SendFrame  data_forward.o
    0x0000125c   0x0000125c   0x0000010c   Code   RO          392    i.DataForward_SendFrameToPort  data_forward.o
    0x00001368   0x00001368   0x00000028   Code   RO          394    i.DataForward_UpdateActivePort  data_forward.o
    0x00001390   0x00001390   0x0000010c   Code   RO         2500    i.ETHInit           CH57xNET.LIB(eth.o)
    0x0000149c   0x0000149c   0x00000060   Code   RO         2501    i.ETHRec            CH57xNET.LIB(eth.o)
    0x000014fc   0x000014fc   0x0000005c   Code   RO         2502    i.ETHSend           CH57xNET.LIB(eth.o)
    0x00001558   0x00001558   0x00000008   Code   RO         2005    i.ETH_IRQHandler    net_init.o
    0x00001560   0x00001560   0x000000a8   Code   RO         2503    i.ETH_IRQ_Deal      CH57xNET.LIB(eth.o)
    0x00001608   0x00001608   0x00000018   Code   RO         2417    i.ErrorEncode       CH57xNET.LIB(ch57xsock.o)
    0x00001620   0x00001620   0x00000098   Code   RO          757    i.GPIOA_ModeCfg     ch57x_gpio.o
    0x000016b8   0x000016b8   0x00000098   Code   RO          759    i.GPIOB_ModeCfg     ch57x_gpio.o
    0x00001750   0x00001750   0x00000020   Code   RO          760    i.GPIOPinRemap      ch57x_gpio.o
    0x00001770   0x00001770   0x0000001c   Code   RO          711    i.GetMACAddress     ch57x_flash.o
    0x0000178c   0x0000178c   0x00000022   Code   RO         2006    i.GetMacAddr        net_init.o
    0x000017ae   0x000017ae   0x00000002   PAD
    0x000017b0   0x000017b0   0x00000050   Code   RO          581    i.GetSysClock       ch57x_clk.o
    0x00001800   0x00001800   0x00000028   Code   RO         2792    i.IPCheckParaInit   CH57xNET.LIB(ipcheck.o)
    0x00001828   0x00001828   0x00000058   Code   RO         2793    i.IPCheckTmr        CH57xNET.LIB(ipcheck.o)
    0x00001880   0x00001880   0x00000030   Code   RO         2794    i.IPConflictHandle  CH57xNET.LIB(ipcheck.o)
    0x000018b0   0x000018b0   0x00000024   Code   RO         2789    i.InitCH57xMAC      CH57xNET.LIB(hal.o)
    0x000018d4   0x000018d4   0x000000ec   Code   RO         2748    i.LwIPPeriodicHandle  CH57xNET.LIB(ethernetif.o)
    0x000019c0   0x000019c0   0x0000000c   Code   RO         2418    i.LwipArpCheck      CH57xNET.LIB(ch57xsock.o)
    0x000019cc   0x000019cc   0x00000070   Code   RO         2419    i.LwipRemoveTcpPcb  CH57xNET.LIB(ch57xsock.o)
    0x00001a3c   0x00001a3c   0x00000004   Code   RO         2420    i.LwipTCPPollCallBack  CH57xNET.LIB(ch57xsock.o)
    0x00001a40   0x00001a40   0x00000036   Code   RO         2421    i.LwipTCPSendCallBack  CH57xNET.LIB(ch57xsock.o)
    0x00001a76   0x00001a76   0x00000002   PAD
    0x00001a78   0x00001a78   0x0000001c   Code   RO         2423    i.LwipUnreachPort   CH57xNET.LIB(ch57xsock.o)
    0x00001a94   0x00001a94   0x00000016   Code   RO         2424    i.MemShortCopy      CH57xNET.LIB(ch57xsock.o)
    0x00001aaa   0x00001aaa   0x00000002   PAD
    0x00001aac   0x00001aac   0x00000098   Code   RO          809    i.NMI_Handler       ch57x_int.o
    0x00001b44   0x00001b44   0x00000014   Code   RO          169    i.NVIC_EnableIRQ    uart.o
    0x00001b58   0x00001b58   0x00000078   Code   RO          170    i.NVIC_SetPriority  uart.o
    0x00001bd0   0x00001bd0   0x00000078   Code   RO          258    i.NVIC_SetPriority  time.o
    0x00001c48   0x00001c48   0x00000078   Code   RO         2007    i.NVIC_SetPriority  net_init.o
    0x00001cc0   0x00001cc0   0x000000a0   Code   RO          906    i.PWR_UnitModCfg    ch57x_pwr.o
    0x00001d60   0x00001d60   0x0000002a   Code   RO          395    i.PortToMask        data_forward.o
    0x00001d8a   0x00001d8a   0x00000002   PAD
    0x00001d8c   0x00001d8c   0x00000060   Code   RO          907    i.PowerMonitor      ch57x_pwr.o
    0x00001dec   0x00001dec   0x0000006c   Code   RO         2749    i.QuaryEthRxDma     CH57xNET.LIB(ethernetif.o)
    0x00001e58   0x00001e58   0x0000000c   Code   RO         2425    i.QueryPingEnable   CH57xNET.LIB(ch57xsock.o)
    0x00001e64   0x00001e64   0x00000014   Code   RO         2506    i.ReadPHYReg        CH57xNET.LIB(eth.o)
    0x00001e78   0x00001e78   0x00000038   Code   RO         2582    i.RemoveTimeWaiTCP  CH57xNET.LIB(tcp.o)
    0x00001eb0   0x00001eb0   0x00000020   Code   RO         1127    i.SYS_ResetExecute  ch57x_sys.o
    0x00001ed0   0x00001ed0   0x00000020   Code   RO         2795    i.SelIPARPSend      CH57xNET.LIB(ipcheck.o)
    0x00001ef0   0x00001ef0   0x00000160   Code   RO          597    i.SetSysClock       ch57x_clk.o
    0x00002050   0x00002050   0x00000094   Code   RO         2750    i.SetupNetif        CH57xNET.LIB(ethernetif.o)
    0x000020e4   0x000020e4   0x000000ac   Code   RO         2426    i.SocketIPRAWReceive  CH57xNET.LIB(ch57xsock.o)
    0x00002190   0x00002190   0x000000cc   Code   RO         2427    i.SocketIPRawSend   CH57xNET.LIB(ch57xsock.o)
    0x0000225c   0x0000225c   0x00000104   Code   RO         2428    i.SocketTcpSend     CH57xNET.LIB(ch57xsock.o)
    0x00002360   0x00002360   0x000000b8   Code   RO         2429    i.SocketUdpReceive  CH57xNET.LIB(ch57xsock.o)
    0x00002418   0x00002418   0x000000c0   Code   RO         2430    i.SocketUdpSend     CH57xNET.LIB(ch57xsock.o)
    0x000024d8   0x000024d8   0x00000018   Code   RO          332    i.SysTick_Handler   sys_tick.o
    0x000024f0   0x000024f0   0x0000002c   Code   RO          598    i.SystemInit        ch57x_clk.o
    0x0000251c   0x0000251c   0x0000006c   Code   RO          259    i.TMR0_IRQHandler   time.o
    0x00002588   0x00002588   0x00000014   Code   RO         1201    i.TMR0_TimerInit    ch57x_timer0.o
    0x0000259c   0x0000259c   0x0000002c   Code   RO         1385    i.UART0_BaudRateCfg  ch57x_uart0.o
    0x000025c8   0x000025c8   0x00000024   Code   RO         1387    i.UART0_DefInit     ch57x_uart0.o
    0x000025ec   0x000025ec   0x0000002c   Code   RO         1388    i.UART0_INTCfg      ch57x_uart0.o
    0x00002618   0x00002618   0x00000068   Code   RO          171    i.UART0_IRQHandler  uart.o
    0x00002680   0x00002680   0x0000002c   Code   RO         1441    i.UART1_BaudRateCfg  ch57x_uart1.o
    0x000026ac   0x000026ac   0x00000024   Code   RO         1443    i.UART1_DefInit     ch57x_uart1.o
    0x000026d0   0x000026d0   0x0000002c   Code   RO         1444    i.UART1_INTCfg      ch57x_uart1.o
    0x000026fc   0x000026fc   0x00000068   Code   RO          172    i.UART1_IRQHandler  uart.o
    0x00002764   0x00002764   0x0000002c   Code   RO         1497    i.UART2_BaudRateCfg  ch57x_uart2.o
    0x00002790   0x00002790   0x00000024   Code   RO         1499    i.UART2_DefInit     ch57x_uart2.o
    0x000027b4   0x000027b4   0x0000002c   Code   RO         1500    i.UART2_INTCfg      ch57x_uart2.o
    0x000027e0   0x000027e0   0x00000068   Code   RO          173    i.UART2_IRQHandler  uart.o
    0x00002848   0x00002848   0x0000002c   Code   RO         1553    i.UART3_BaudRateCfg  ch57x_uart3.o
    0x00002874   0x00002874   0x00000024   Code   RO         1555    i.UART3_DefInit     ch57x_uart3.o
    0x00002898   0x00002898   0x0000002c   Code   RO         1556    i.UART3_INTCfg      ch57x_uart3.o
    0x000028c4   0x000028c4   0x00000068   Code   RO          174    i.UART3_IRQHandler  uart.o
    0x0000292c   0x0000292c   0x00000020   Code   RO         3108    i.__0printf$8       mc_p.l(printf8.o)
    0x0000294c   0x0000294c   0x0000001a   Code   RO         2648    i.__ARM_common_switch8  CH57xNET.LIB(tcp.o)
    0x00002966   0x00002966   0x0000000e   Code   RO         3207    i.__scatterload_copy  mc_p.l(handlers.o)
    0x00002974   0x00002974   0x00000002   Code   RO         3208    i.__scatterload_null  mc_p.l(handlers.o)
    0x00002976   0x00002976   0x0000000e   Code   RO         3209    i.__scatterload_zeroinit  mc_p.l(handlers.o)
    0x00002984   0x00002984   0x00000428   Code   RO         3115    i._printf_core      mc_p.l(printf8.o)
    0x00002dac   0x00002dac   0x00000020   Code   RO         3116    i._printf_post_padding  mc_p.l(printf8.o)
    0x00002dcc   0x00002dcc   0x0000002c   Code   RO         3117    i._printf_pre_padding  mc_p.l(printf8.o)
    0x00002df8   0x00002df8   0x00000026   Code   RO         2308    i.dhcp_arp_reply    CH57xNET.LIB(ch57xnet_dhcp.o)
    0x00002e1e   0x00002e1e   0x00000002   PAD
    0x00002e20   0x00002e20   0x00000134   Code   RO         2312    i.dhcp_create_request  CH57xNET.LIB(ch57xnet_dhcp.o)
    0x00002f54   0x00002f54   0x000000bc   Code   RO         2313    i.dhcp_decline      CH57xNET.LIB(ch57xnet_dhcp.o)
    0x00003010   0x00003010   0x0000001e   Code   RO         2314    i.dhcp_delete_request  CH57xNET.LIB(ch57xnet_dhcp.o)
    0x0000302e   0x0000302e   0x00000020   Code   RO         2323    i.dhcp_option       CH57xNET.LIB(ch57xnet_dhcp.o)
    0x0000304e   0x0000304e   0x00000010   Code   RO         2324    i.dhcp_option_byte  CH57xNET.LIB(ch57xnet_dhcp.o)
    0x0000305e   0x0000305e   0x00000042   Code   RO         2325    i.dhcp_option_long  CH57xNET.LIB(ch57xnet_dhcp.o)
    0x000030a0   0x000030a0   0x00000074   Code   RO         2326    i.dhcp_option_mac   CH57xNET.LIB(ch57xnet_dhcp.o)
    0x00003114   0x00003114   0x00000030   Code   RO         2328    i.dhcp_option_trailer  CH57xNET.LIB(ch57xnet_dhcp.o)
    0x00003144   0x00003144   0x0000000e   Code   RO         2335    i.dhcp_set_state    CH57xNET.LIB(ch57xnet_dhcp.o)
    0x00003152   0x00003152   0x00000002   PAD
    0x00003154   0x00003154   0x0000013c   Code   RO         2717    i.etharp_arp_input  CH57xNET.LIB(etharp.o)
    0x00003290   0x00003290   0x0000002c   Code   RO         2719    i.etharp_ip_input   CH57xNET.LIB(etharp.o)
    0x000032bc   0x000032bc   0x000000cc   Code   RO         2720    i.etharp_output     CH57xNET.LIB(etharp.o)
    0x00003388   0x00003388   0x000000b0   Code   RO         2721    i.etharp_query      CH57xNET.LIB(etharp.o)
    0x00003438   0x00003438   0x000000b8   Code   RO         2722    i.etharp_raw        CH57xNET.LIB(etharp.o)
    0x000034f0   0x000034f0   0x00000024   Code   RO         2723    i.etharp_request    CH57xNET.LIB(etharp.o)
    0x00003514   0x00003514   0x00000034   Code   RO         2724    i.etharp_send_ip    CH57xNET.LIB(etharp.o)
    0x00003548   0x00003548   0x00000048   Code   RO         2725    i.etharp_tmr        CH57xNET.LIB(etharp.o)
    0x00003590   0x00003590   0x00000064   Code   RO         2726    i.ethernet_input    CH57xNET.LIB(etharp.o)
    0x000035f4   0x000035f4   0x00000044   Code   RO         2751    i.ethernetif_init   CH57xNET.LIB(ethernetif.o)
    0x00003638   0x00003638   0x00000070   Code   RO         2752    i.ethernetif_input  CH57xNET.LIB(ethernetif.o)
    0x000036a8   0x000036a8   0x00000110   Code   RO         2727    i.find_entry        CH57xNET.LIB(etharp.o)
    0x000037b8   0x000037b8   0x00000014   Code   RO          175    i.fputc             uart.o
    0x000037cc   0x000037cc   0x00000004   Code   RO         2697    i.htonl             CH57xNET.LIB(inet.o)
    0x000037d0   0x000037d0   0x00000004   Code   RO         2698    i.htons             CH57xNET.LIB(inet.o)
    0x000037d4   0x000037d4   0x0000000c   Code   RO         2853    i.icmp_dest_unreach  CH57xNET.LIB(icmp.o)
    0x000037e0   0x000037e0   0x000001f4   Code   RO         2854    i.icmp_input        CH57xNET.LIB(icmp.o)
    0x000039d4   0x000039d4   0x0000006a   Code   RO         2855    i.icmp_send_response  CH57xNET.LIB(icmp.o)
    0x00003a3e   0x00003a3e   0x0000000c   Code   RO         2868    i.inet_chksum       CH57xNET.LIB(inet_chksum.o)
    0x00003a4a   0x00003a4a   0x0000003e   Code   RO         2869    i.inet_chksum_pbuf  CH57xNET.LIB(inet_chksum.o)
    0x00003a88   0x00003a88   0x00000078   Code   RO         2870    i.inet_chksum_pseudo  CH57xNET.LIB(inet_chksum.o)
    0x00003b00   0x00003b00   0x0000003a   Code   RO         2712    i.ip_addr_isbroadcast  CH57xNET.LIB(ip_addr.o)
    0x00003b3a   0x00003b3a   0x0000015a   Code   RO         2876    i.ip_frag           CH57xNET.LIB(ip_frag.o)
    0x00003c94   0x00003c94   0x0000024c   Code   RO         2859    i.ip_input          CH57xNET.LIB(ip.o)
    0x00003ee0   0x00003ee0   0x00000032   Code   RO         2860    i.ip_output         CH57xNET.LIB(ip.o)
    0x00003f12   0x00003f12   0x00000002   PAD
    0x00003f14   0x00003f14   0x0000010c   Code   RO         2861    i.ip_output_if      CH57xNET.LIB(ip.o)
    0x00004020   0x00004020   0x00000054   Code   RO         2862    i.ip_route          CH57xNET.LIB(ip.o)
    0x00004074   0x00004074   0x000000bc   Code   RO         2753    i.low_level_init    CH57xNET.LIB(ethernetif.o)
    0x00004130   0x00004130   0x000000d8   Code   RO         2754    i.low_level_input   CH57xNET.LIB(ethernetif.o)
    0x00004208   0x00004208   0x000000a4   Code   RO         2755    i.low_level_output  CH57xNET.LIB(ethernetif.o)
    0x000042ac   0x000042ac   0x0000001c   Code   RO         2827    i.lwip_init         CH57xNET.LIB(init.o)
    0x000042c8   0x000042c8   0x0000003c   Code   RO         2871    i.lwip_standard_chksum  CH57xNET.LIB(inet_chksum.o)
    0x00004304   0x00004304   0x0000001a   Code   RO         1131    i.mDelaymS          ch57x_sys.o
    0x0000431e   0x0000431e   0x00000022   Code   RO         1132    i.mDelayuS          ch57x_sys.o
    0x00004340   0x00004340   0x0000006c   Code   RO            4    i.main              main.o
    0x000043ac   0x000043ac   0x0000002c   Code   RO         2521    i.mem_free          CH57xNET.LIB(mem.o)
    0x000043d8   0x000043d8   0x00000050   Code   RO         2522    i.mem_init          CH57xNET.LIB(mem.o)
    0x00004428   0x00004428   0x000000b4   Code   RO         2523    i.mem_malloc        CH57xNET.LIB(mem.o)
    0x000044dc   0x000044dc   0x000000d8   Code   RO         2524    i.mem_realloc       CH57xNET.LIB(mem.o)
    0x000045b4   0x000045b4   0x00000014   Code   RO         2829    i.memp_free         CH57xNET.LIB(memp.o)
    0x000045c8   0x000045c8   0x00000050   Code   RO         2830    i.memp_init         CH57xNET.LIB(memp.o)
    0x00004618   0x00004618   0x0000001c   Code   RO         2831    i.memp_malloc       CH57xNET.LIB(memp.o)
    0x00004634   0x00004634   0x0000004c   Code   RO         2094    i.net_dns_loop      net_dns.o
    0x00004680   0x00004680   0x00000028   Code   RO         2102    i.net_dns_socket_close  net_dns.o
    0x000046a8   0x000046a8   0x00000070   Code   RO         2008    i.net_init          net_init.o
    0x00004718   0x00004718   0x0000001c   Code   RO         2009    i.net_initkeeplive  net_init.o
    0x00004734   0x00004734   0x00000014   Code   RO         2256    i.net_tcp_server_close  net_tcp_server.o
    0x00004748   0x00004748   0x000000bc   Code   RO         2257    i.net_tcp_server_creat_socket  net_tcp_server.o
    0x00004804   0x00004804   0x00000110   Code   RO         2258    i.net_tcp_server_data  net_tcp_server.o
    0x00004914   0x00004914   0x00000060   Code   RO         2259    i.net_tcp_server_send  net_tcp_server.o
    0x00004974   0x00004974   0x00000048   Code   RO         2533    i.netif_add         CH57xNET.LIB(netif.o)
    0x000049bc   0x000049bc   0x0000000a   Code   RO         2535    i.netif_is_up       CH57xNET.LIB(netif.o)
    0x000049c6   0x000049c6   0x0000001e   Code   RO         2537    i.netif_set_addr    CH57xNET.LIB(netif.o)
    0x000049e4   0x000049e4   0x0000000c   Code   RO         2538    i.netif_set_default  CH57xNET.LIB(netif.o)
    0x000049f0   0x000049f0   0x00000016   Code   RO         2540    i.netif_set_gw      CH57xNET.LIB(netif.o)
    0x00004a06   0x00004a06   0x00000002   PAD
    0x00004a08   0x00004a08   0x00000084   Code   RO         2541    i.netif_set_ipaddr  CH57xNET.LIB(netif.o)
    0x00004a8c   0x00004a8c   0x00000016   Code   RO         2542    i.netif_set_netmask  CH57xNET.LIB(netif.o)
    0x00004aa2   0x00004aa2   0x00000004   Code   RO         2702    i.ntohl             CH57xNET.LIB(inet.o)
    0x00004aa6   0x00004aa6   0x00000004   Code   RO         2703    i.ntohs             CH57xNET.LIB(inet.o)
    0x00004aaa   0x00004aaa   0x00000002   PAD
    0x00004aac   0x00004aac   0x00000114   Code   RO         2556    i.pbuf_alloc        CH57xNET.LIB(pbuf.o)
    0x00004bc0   0x00004bc0   0x00000028   Code   RO         2557    i.pbuf_cat          CH57xNET.LIB(pbuf.o)
    0x00004be8   0x00004be8   0x00000010   Code   RO         2558    i.pbuf_chain        CH57xNET.LIB(pbuf.o)
    0x00004bf8   0x00004bf8   0x00000012   Code   RO         2559    i.pbuf_clen         CH57xNET.LIB(pbuf.o)
    0x00004c0a   0x00004c0a   0x00000094   Code   RO         2561    i.pbuf_copy         CH57xNET.LIB(pbuf.o)
    0x00004c9e   0x00004c9e   0x00000044   Code   RO         2564    i.pbuf_free         CH57xNET.LIB(pbuf.o)
    0x00004ce2   0x00004ce2   0x00000066   Code   RO         2565    i.pbuf_header       CH57xNET.LIB(pbuf.o)
    0x00004d48   0x00004d48   0x00000052   Code   RO         2566    i.pbuf_realloc      CH57xNET.LIB(pbuf.o)
    0x00004d9a   0x00004d9a   0x0000000c   Code   RO         2567    i.pbuf_ref          CH57xNET.LIB(pbuf.o)
    0x00004da6   0x00004da6   0x00000002   PAD
    0x00004da8   0x00004da8   0x0000001c   Code   RO         2432    i.phy_change        CH57xNET.LIB(ch57xsock.o)
    0x00004dc4   0x00004dc4   0x00000054   Code   RO         2525    i.plug_holes        CH57xNET.LIB(mem.o)
    0x00004e18   0x00004e18   0x00000018   Code   RO         2771    i.raw_bind          CH57xNET.LIB(raw.o)
    0x00004e30   0x00004e30   0x00000018   Code   RO         2772    i.raw_connect       CH57xNET.LIB(raw.o)
    0x00004e48   0x00004e48   0x00000074   Code   RO         2773    i.raw_input         CH57xNET.LIB(raw.o)
    0x00004ebc   0x00004ebc   0x0000002c   Code   RO         2774    i.raw_new           CH57xNET.LIB(raw.o)
    0x00004ee8   0x00004ee8   0x00000006   Code   RO         2775    i.raw_recv          CH57xNET.LIB(raw.o)
    0x00004eee   0x00004eee   0x00000002   PAD
    0x00004ef0   0x00004ef0   0x00000034   Code   RO         2776    i.raw_remove        CH57xNET.LIB(raw.o)
    0x00004f24   0x00004f24   0x0000000a   Code   RO         2777    i.raw_send          CH57xNET.LIB(raw.o)
    0x00004f2e   0x00004f2e   0x00000092   Code   RO         2778    i.raw_sendto        CH57xNET.LIB(raw.o)
    0x00004fc0   0x00004fc0   0x000000a8   Code   RO         2583    i.tcp_abandon       CH57xNET.LIB(tcp.o)
    0x00005068   0x00005068   0x00000004   Code   RO         2584    i.tcp_accept        CH57xNET.LIB(tcp.o)
    0x0000506c   0x0000506c   0x00000006   Code   RO         2585    i.tcp_accept_null   CH57xNET.LIB(tcp.o)
    0x00005072   0x00005072   0x00000002   PAD
    0x00005074   0x00005074   0x00000114   Code   RO         2586    i.tcp_alloc         CH57xNET.LIB(tcp.o)
    0x00005188   0x00005188   0x00000004   Code   RO         2587    i.tcp_arg           CH57xNET.LIB(tcp.o)
    0x0000518c   0x0000518c   0x000000fc   Code   RO         2588    i.tcp_bind          CH57xNET.LIB(tcp.o)
    0x00005288   0x00005288   0x000000b4   Code   RO         2589    i.tcp_close         CH57xNET.LIB(tcp.o)
    0x0000533c   0x0000533c   0x00000024   Code   RO         2592    i.tcp_eff_send_mss  CH57xNET.LIB(tcp.o)
    0x00005360   0x00005360   0x000003d8   Code   RO         2650    i.tcp_enqueue       CH57xNET.LIB(tcp_out.o)
    0x00005738   0x00005738   0x00000006   Code   RO         2593    i.tcp_err           CH57xNET.LIB(tcp.o)
    0x0000573e   0x0000573e   0x00000002   PAD
    0x00005740   0x00005740   0x00000068   Code   RO         2594    i.tcp_fasttmr       CH57xNET.LIB(tcp.o)
    0x000057a8   0x000057a8   0x000003d0   Code   RO         2837    i.tcp_input         CH57xNET.LIB(tcp_in.o)
    0x00005b78   0x00005b78   0x0000005a   Code   RO         2651    i.tcp_keepalive     CH57xNET.LIB(tcp_out.o)
    0x00005bd2   0x00005bd2   0x00000002   PAD
    0x00005bd4   0x00005bd4   0x000000fc   Code   RO         2838    i.tcp_listen_input  CH57xNET.LIB(tcp_in.o)
    0x00005cd0   0x00005cd0   0x00000084   Code   RO         2595    i.tcp_listen_with_backlog  CH57xNET.LIB(tcp.o)
    0x00005d54   0x00005d54   0x0000000a   Code   RO         2596    i.tcp_new           CH57xNET.LIB(tcp.o)
    0x00005d5e   0x00005d5e   0x00000002   PAD
    0x00005d60   0x00005d60   0x0000005c   Code   RO         2597    i.tcp_new_port      CH57xNET.LIB(tcp.o)
    0x00005dbc   0x00005dbc   0x00000010   Code   RO         2598    i.tcp_next_iss      CH57xNET.LIB(tcp.o)
    0x00005dcc   0x00005dcc   0x000000b4   Code   RO         2839    i.tcp_oos_insert_segment  CH57xNET.LIB(tcp_in.o)
    0x00005e80   0x00005e80   0x00000200   Code   RO         2652    i.tcp_output        CH57xNET.LIB(tcp_out.o)
    0x00006080   0x00006080   0x000000e8   Code   RO         2653    i.tcp_output_segment  CH57xNET.LIB(tcp_out.o)
    0x00006168   0x00006168   0x000000b0   Code   RO         2654    i.tcp_output_set_header  CH57xNET.LIB(tcp_out.o)
    0x00006218   0x00006218   0x0000008c   Code   RO         2840    i.tcp_parseopt      CH57xNET.LIB(tcp_in.o)
    0x000062a4   0x000062a4   0x00000044   Code   RO         2599    i.tcp_pcb_purge     CH57xNET.LIB(tcp.o)
    0x000062e8   0x000062e8   0x0000005c   Code   RO         2600    i.tcp_pcb_remove    CH57xNET.LIB(tcp.o)
    0x00006344   0x00006344   0x0000000a   Code   RO         2601    i.tcp_poll          CH57xNET.LIB(tcp.o)
    0x0000634e   0x0000634e   0x00000002   PAD
    0x00006350   0x00006350   0x0000033c   Code   RO         2841    i.tcp_process       CH57xNET.LIB(tcp_in.o)
    0x0000668c   0x0000668c   0x00000734   Code   RO         2842    i.tcp_receive       CH57xNET.LIB(tcp_in.o)
    0x00006dc0   0x00006dc0   0x00000006   Code   RO         2602    i.tcp_recv          CH57xNET.LIB(tcp.o)
    0x00006dc6   0x00006dc6   0x00000024   Code   RO         2603    i.tcp_recv_null     CH57xNET.LIB(tcp.o)
    0x00006dea   0x00006dea   0x00000002   PAD
    0x00006dec   0x00006dec   0x0000003c   Code   RO         2604    i.tcp_recved        CH57xNET.LIB(tcp.o)
    0x00006e28   0x00006e28   0x0000000a   Code   RO         2433    i.tcp_recved_CH57x  CH57xNET.LIB(ch57xsock.o)
    0x00006e32   0x00006e32   0x00000026   Code   RO         2434    i.tcp_recved_socket  CH57xNET.LIB(ch57xsock.o)
    0x00006e58   0x00006e58   0x00000050   Code   RO         2655    i.tcp_rexmit        CH57xNET.LIB(tcp_out.o)
    0x00006ea8   0x00006ea8   0x0000004e   Code   RO         2656    i.tcp_rexmit_fast   CH57xNET.LIB(tcp_out.o)
    0x00006ef6   0x00006ef6   0x00000030   Code   RO         2657    i.tcp_rexmit_rto    CH57xNET.LIB(tcp_out.o)
    0x00006f26   0x00006f26   0x00000002   PAD
    0x00006f28   0x00006f28   0x000000e0   Code   RO         2658    i.tcp_rst           CH57xNET.LIB(tcp_out.o)
    0x00007008   0x00007008   0x00000024   Code   RO         2605    i.tcp_seg_copy      CH57xNET.LIB(tcp.o)
    0x0000702c   0x0000702c   0x00000022   Code   RO         2606    i.tcp_seg_free      CH57xNET.LIB(tcp.o)
    0x0000704e   0x0000704e   0x0000001a   Code   RO         2607    i.tcp_segs_free     CH57xNET.LIB(tcp.o)
    0x00007068   0x00007068   0x00000016   Code   RO         2659    i.tcp_send_ctrl     CH57xNET.LIB(tcp_out.o)
    0x0000707e   0x0000707e   0x0000006e   Code   RO         2660    i.tcp_send_empty_ack  CH57xNET.LIB(tcp_out.o)
    0x000070ec   0x000070ec   0x00000006   Code   RO         2608    i.tcp_sent          CH57xNET.LIB(tcp.o)
    0x000070f2   0x000070f2   0x00000002   PAD
    0x000070f4   0x000070f4   0x00000048   Code   RO            5    i.tcp_server_connected_back  main.o
    0x0000713c   0x0000713c   0x0000007c   Code   RO            6    i.tcp_server_disconnected_back  main.o
    0x000071b8   0x000071b8   0x00000012   Code   RO            7    i.tcp_server_recv_back  main.o
    0x000071ca   0x000071ca   0x00000002   PAD
    0x000071cc   0x000071cc   0x00000270   Code   RO         2610    i.tcp_slowtmr       CH57xNET.LIB(tcp.o)
    0x0000743c   0x0000743c   0x00000078   Code   RO         2843    i.tcp_timewait_input  CH57xNET.LIB(tcp_in.o)
    0x000074b4   0x000074b4   0x0000001c   Code   RO         2611    i.tcp_tmr           CH57xNET.LIB(tcp.o)
    0x000074d0   0x000074d0   0x0000003c   Code   RO         2612    i.tcp_update_rcv_ann_wnd  CH57xNET.LIB(tcp.o)
    0x0000750c   0x0000750c   0x00000030   Code   RO         2661    i.tcp_write         CH57xNET.LIB(tcp_out.o)
    0x0000753c   0x0000753c   0x000000c0   Code   RO         2662    i.tcp_zero_window_probe  CH57xNET.LIB(tcp_out.o)
    0x000075fc   0x000075fc   0x00000034   Code   RO          260    i.time0_init        time.o
    0x00007630   0x00007630   0x00000100   Code   RO          176    i.uart_init         uart.o
    0x00007730   0x00007730   0x00000040   Code   RO          177    i.uart_send_byte    uart.o
    0x00007770   0x00007770   0x0000009c   Code   RO         2676    i.udp_bind          CH57xNET.LIB(udp.o)
    0x0000780c   0x0000780c   0x00000088   Code   RO         2677    i.udp_connect       CH57xNET.LIB(udp.o)
    0x00007894   0x00007894   0x00000224   Code   RO         2679    i.udp_input         CH57xNET.LIB(udp.o)
    0x00007ab8   0x00007ab8   0x0000001a   Code   RO         2680    i.udp_new           CH57xNET.LIB(udp.o)
    0x00007ad2   0x00007ad2   0x00000006   Code   RO         2681    i.udp_recv          CH57xNET.LIB(udp.o)
    0x00007ad8   0x00007ad8   0x00000034   Code   RO         2682    i.udp_remove        CH57xNET.LIB(udp.o)
    0x00007b0c   0x00007b0c   0x0000000c   Code   RO         2683    i.udp_send          CH57xNET.LIB(udp.o)
    0x00007b18   0x00007b18   0x0000002a   Code   RO         2684    i.udp_sendto        CH57xNET.LIB(udp.o)
    0x00007b42   0x00007b42   0x000000ea   Code   RO         2685    i.udp_sendto_if     CH57xNET.LIB(udp.o)
    0x00007c2c   0x00007c2c   0x00000090   Code   RO         2728    i.update_arp_entry  CH57xNET.LIB(etharp.o)
    0x00007cbc   0x00007cbc   0x00000010   Data   RO         2436    .constdata          CH57xNET.LIB(ch57xsock.o)
    0x00007ccc   0x00007ccc   0x0000001b   Data   RO         2613    .constdata          CH57xNET.LIB(tcp.o)
    0x00007ce7   0x00007ce7   0x00000004   Data   RO         2713    .constdata          CH57xNET.LIB(ip_addr.o)
    0x00007ceb   0x00007ceb   0x00000004   Data   RO         2714    .constdata          CH57xNET.LIB(ip_addr.o)
    0x00007cef   0x00007cef   0x0000000c   Data   RO         2729    .constdata          CH57xNET.LIB(etharp.o)
    0x00007cfb   0x00007cfb   0x00000001   PAD
    0x00007cfc   0x00007cfc   0x00000075   Data   RO         2614    .conststring        CH57xNET.LIB(tcp.o)
    0x00007d71   0x00007d71   0x00000003   PAD
    0x00007d74   0x00007d74   0x00000020   Data   RO         3206    Region$$Table       anon$$obj.o


    Execution Region RW_IRAM1 (Exec base: 0x20000000, Load base: 0x00007d94, Size: 0x000068f0, Max: 0x00008000, ABSOLUTE, COMPRESSED[0x00000088])

    Exec Addr    Load Addr    Size         Type   Attr      Idx    E Section Name        Object

    0x20000000   COMPRESSED   0x0000001c   Data   RW            9    .data               main.o
    0x2000001c   COMPRESSED   0x00000004   Data   RW          261    .data               time.o
    0x20000020   COMPRESSED   0x00000008   Data   RW          334    .data               sys_tick.o
    0x20000028   COMPRESSED   0x00000007   Data   RW          397    .data               data_forward.o
    0x2000002f   COMPRESSED   0x00000001   PAD
    0x20000030   COMPRESSED   0x00000036   Data   RW         2011    .data               net_init.o
    0x20000066   COMPRESSED   0x00000002   PAD
    0x20000068   COMPRESSED   0x00000018   Data   RW         2108    .data               net_dns.o
    0x20000080   COMPRESSED   0x00000008   Data   RW         2260    .data               net_tcp_server.o
    0x20000088   COMPRESSED   0x00000008   Data   RW         2340    .data               CH57xNET.LIB(ch57xnet_dhcp.o)
    0x20000090   COMPRESSED   0x00000010   Data   RW         2437    .data               CH57xNET.LIB(ch57xsock.o)
    0x200000a0   COMPRESSED   0x00000004   Data   RW         2508    .data               CH57xNET.LIB(eth.o)
    0x200000a4   COMPRESSED   0x00000010   Data   RW         2526    .data               CH57xNET.LIB(mem.o)
    0x200000b4   COMPRESSED   0x0000000c   Data   RW         2544    .data               CH57xNET.LIB(netif.o)
    0x200000c0   COMPRESSED   0x0000004c   Data   RW         2615    .data               CH57xNET.LIB(tcp.o)
    0x2000010c   COMPRESSED   0x00000004   Data   RW         2686    .data               CH57xNET.LIB(udp.o)
    0x20000110   COMPRESSED   0x00000008   Data   RW         2730    .data               CH57xNET.LIB(etharp.o)
    0x20000118   COMPRESSED   0x00000040   Data   RW         2757    .data               CH57xNET.LIB(ethernetif.o)
    0x20000158   COMPRESSED   0x00000004   Data   RW         2779    .data               CH57xNET.LIB(raw.o)
    0x2000015c   COMPRESSED   0x0000000c   Data   RW         2833    .data               CH57xNET.LIB(memp.o)
    0x20000168   COMPRESSED   0x0000001c   Data   RW         2845    .data               CH57xNET.LIB(tcp_in.o)
    0x20000184   COMPRESSED   0x0000000c   Data   RW         2863    .data               CH57xNET.LIB(ip.o)
    0x20000190   COMPRESSED   0x00000004   Data   RW         3180    .data               mc_p.l(stdout.o)
    0x20000194        -       0x00000f1a   Zero   RW            8    .bss                main.o
    0x200010ae   COMPRESSED   0x00000002   PAD
    0x200010b0        -       0x00001c4c   Zero   RW          396    .bss                data_forward.o
    0x20002cfc   COMPRESSED   0x00000004   PAD
    0x20002d00        -       0x00003158   Zero   RW         2010    .bss                net_init.o
    0x20005e58        -       0x00000064   Zero   RW         2435    .bss                CH57xNET.LIB(ch57xsock.o)
    0x20005ebc   COMPRESSED   0x00000004   PAD
    0x20005ec0        -       0x0000077c   Zero   RW         2756    .bss                CH57xNET.LIB(ethernetif.o)
    0x2000663c        -       0x0000000a   Zero   RW         2796    .bss                CH57xNET.LIB(ipcheck.o)
    0x20006646   COMPRESSED   0x00000002   PAD
    0x20006648        -       0x00000274   Zero   RW         2813    .bss                CH57xNET.LIB(ch57xnet_nds.o)
    0x200068bc        -       0x00000020   Zero   RW         2832    .bss                CH57xNET.LIB(memp.o)
    0x200068dc        -       0x00000014   Zero   RW         2844    .bss                CH57xNET.LIB(tcp_in.o)


==============================================================================

Image component sizes


      Code (inc. data)   RO Data    RW Data    ZI Data      Debug   Object Name

       476         44          0          0          0       1789   ch57x_clk.o
        28          4          0          0          0        516   ch57x_flash.o
       336         32          0          0          0       1691   ch57x_gpio.o
       152          6          0          0          0        526   ch57x_int.o
       256         12          0          0          0       1132   ch57x_pwr.o
        92          4          0          0          0       1505   ch57x_sys.o
        20          4          0          0          0        481   ch57x_timer0.o
       124         14          0          0          0       1527   ch57x_uart0.o
       124         14          0          0          0       1527   ch57x_uart1.o
       124         14          0          0          0       1527   ch57x_uart2.o
       124         14          0          0          0       1527   ch57x_uart3.o
      1410        164          0          7       7244      11415   data_forward.o
       394         58          0         28       3866      61743   main.o
       116         24          0         24          0       3071   net_dns.o
       398         72          0         54      12632       4799   net_init.o
       576         78          0          8          0       4819   net_tcp_server.o
        28         10        144          0          0        568   startup_armcm0.o
        24          4          0          8          0        609   sys_tick.o
       280         30          0          4          0       7314   time.o
       896         54          0          0          0      11165   uart.o

    ----------------------------------------------------------------------
      5984        656        176        136      23748     119251   Object Totals
         0          0         32          0          0          0   (incl. Generated)
         6          0          0          3          6          0   (incl. Padding)

    ----------------------------------------------------------------------

      Code (inc. data)   RO Data    RW Data    ZI Data      Debug   Library Member Name

       856         14          0          8          0        676   ch57xnet_dhcp.o
         0          0          0          0        628          0   ch57xnet_nds.o
      4010        340         16         16        100       3120   ch57xsock.o
       644         80          0          4          0        352   eth.o
      1600         68         12          8          0        856   etharp.o
      1368        234          0         64       1916        672   ethernetif.o
        36         14          0          0          0         68   hal.o
       618          6          0          0          0        228   icmp.o
        16          0          0          0          0        240   inet.o
       254          0          0          0          0        292   inet_chksum.o
        28          6          0          0          0         68   init.o
       990         32          0         12          0        324   ip.o
        58          0          8          0          0         68   ip_addr.o
       346          0          0          0          0         84   ip_frag.o
       208         32          0          0         10        284   ipcheck.o
       604         44          0         16          0        364   mem.o
       128         18          0         12         32        196   memp.o
       300         18          0         12          0        480   netif.o
       762          6          0          0          0        620   pbuf.o
       422         18          0          4          0        568   raw.o
      2454        104        144         76          0       2024   tcp.o
      4340        114          0         28         20        544   tcp_in.o
      2796         48          0          0          0        968   tcp_out.o
      1212         30          0          4          0        664   udp.o
        86          0          0          0          0          0   __dczerorl2.o
         0          0          0          0          0          0   entry.o
         0          0          0          0          0          0   entry10a.o
         0          0          0          0          0          0   entry11a.o
         8          4          0          0          0          0   entry2.o
         4          0          0          0          0          0   entry5.o
         0          0          0          0          0          0   entry7b.o
         0          0          0          0          0          0   entry8b.o
         8          4          0          0          0          0   entry9a.o
        30          0          0          0          0          0   handlers.o
        40          0          0          0          0         72   idiv.o
        36          8          0          0          0         68   init.o
        32          0          0          0          0         68   llshl.o
        34          0          0          0          0         68   llushr.o
        36          0          0          0          0         60   memcpya.o
        36          0          0          0          0        100   memseta.o
      1172         52          0          0          0        324   printf8.o
         0          0          0          4          0          0   stdout.o
        18          0          0          0          0         60   strcpy.o
        44          0          0          0          0         72   uidiv.o
        96          0          0          0          0         84   uldiv.o
        20          0          0          0          0         60   uread4.o
        18          0          0          0          0         60   uwrite4.o

    ----------------------------------------------------------------------
     25804       1294        184        268       2712      14856   Library Totals
        36          0          4          0          6          0   (incl. Padding)

    ----------------------------------------------------------------------

      Code (inc. data)   RO Data    RW Data    ZI Data      Debug   Library Name

     24050       1226        180        264       2706      13760   CH57xNET.LIB
      1718         68          0          4          0       1096   mc_p.l

    ----------------------------------------------------------------------
     25804       1294        184        268       2712      14856   Library Totals

    ----------------------------------------------------------------------

==============================================================================


      Code (inc. data)   RO Data    RW Data    ZI Data      Debug   

     31788       1950        360        404      26460     122451   Grand Totals
     31788       1950        360        136      26460     122451   ELF Image Totals (compressed)
     31788       1950        360        136          0          0   ROM Totals

==============================================================================

    Total RO  Size (Code + RO Data)                32148 (  31.39kB)
    Total RW  Size (RW Data + ZI Data)             26864 (  26.23kB)
    Total ROM Size (Code + RO Data + RW Data)      32284 (  31.53kB)

==============================================================================

